
rtarget:     file format elf64-x86-64


Disassembly of section .init:

0000000000401000 <_init>:
  401000:	f3 0f 1e fa          	endbr64
  401004:	48 83 ec 08          	sub    $0x8,%rsp
  401008:	48 8b 05 d1 5f 00 00 	mov    0x5fd1(%rip),%rax        # 406fe0 <__gmon_start__@Base>
  40100f:	48 85 c0             	test   %rax,%rax
  401012:	74 02                	je     401016 <_init+0x16>
  401014:	ff d0                	call   *%rax
  401016:	48 83 c4 08          	add    $0x8,%rsp
  40101a:	c3                   	ret

Disassembly of section .plt:

0000000000401020 <__errno_location@plt-0x10>:
  401020:	ff 35 ca 5f 00 00    	push   0x5fca(%rip)        # 406ff0 <_GLOBAL_OFFSET_TABLE_+0x8>
  401026:	ff 25 cc 5f 00 00    	jmp    *0x5fcc(%rip)        # 406ff8 <_GLOBAL_OFFSET_TABLE_+0x10>
  40102c:	0f 1f 40 00          	nopl   0x0(%rax)

0000000000401030 <__errno_location@plt>:
  401030:	ff 25 ca 5f 00 00    	jmp    *0x5fca(%rip)        # 407000 <__errno_location@GLIBC_2.2.5>
  401036:	68 00 00 00 00       	push   $0x0
  40103b:	e9 e0 ff ff ff       	jmp    401020 <_init+0x20>

0000000000401040 <srandom@plt>:
  401040:	ff 25 c2 5f 00 00    	jmp    *0x5fc2(%rip)        # 407008 <srandom@GLIBC_2.2.5>
  401046:	68 01 00 00 00       	push   $0x1
  40104b:	e9 d0 ff ff ff       	jmp    401020 <_init+0x20>

0000000000401050 <strncpy@plt>:
  401050:	ff 25 ba 5f 00 00    	jmp    *0x5fba(%rip)        # 407010 <strncpy@GLIBC_2.2.5>
  401056:	68 02 00 00 00       	push   $0x2
  40105b:	e9 c0 ff ff ff       	jmp    401020 <_init+0x20>

0000000000401060 <strncmp@plt>:
  401060:	ff 25 b2 5f 00 00    	jmp    *0x5fb2(%rip)        # 407018 <strncmp@GLIBC_2.2.5>
  401066:	68 03 00 00 00       	push   $0x3
  40106b:	e9 b0 ff ff ff       	jmp    401020 <_init+0x20>

0000000000401070 <strcpy@plt>:
  401070:	ff 25 aa 5f 00 00    	jmp    *0x5faa(%rip)        # 407020 <strcpy@GLIBC_2.2.5>
  401076:	68 04 00 00 00       	push   $0x4
  40107b:	e9 a0 ff ff ff       	jmp    401020 <_init+0x20>

0000000000401080 <puts@plt>:
  401080:	ff 25 a2 5f 00 00    	jmp    *0x5fa2(%rip)        # 407028 <puts@GLIBC_2.2.5>
  401086:	68 05 00 00 00       	push   $0x5
  40108b:	e9 90 ff ff ff       	jmp    401020 <_init+0x20>

0000000000401090 <write@plt>:
  401090:	ff 25 9a 5f 00 00    	jmp    *0x5f9a(%rip)        # 407030 <write@GLIBC_2.2.5>
  401096:	68 06 00 00 00       	push   $0x6
  40109b:	e9 80 ff ff ff       	jmp    401020 <_init+0x20>

00000000004010a0 <strlen@plt>:
  4010a0:	ff 25 92 5f 00 00    	jmp    *0x5f92(%rip)        # 407038 <strlen@GLIBC_2.2.5>
  4010a6:	68 07 00 00 00       	push   $0x7
  4010ab:	e9 70 ff ff ff       	jmp    401020 <_init+0x20>

00000000004010b0 <mmap@plt>:
  4010b0:	ff 25 8a 5f 00 00    	jmp    *0x5f8a(%rip)        # 407040 <mmap@GLIBC_2.2.5>
  4010b6:	68 08 00 00 00       	push   $0x8
  4010bb:	e9 60 ff ff ff       	jmp    401020 <_init+0x20>

00000000004010c0 <alarm@plt>:
  4010c0:	ff 25 82 5f 00 00    	jmp    *0x5f82(%rip)        # 407048 <alarm@GLIBC_2.2.5>
  4010c6:	68 09 00 00 00       	push   $0x9
  4010cb:	e9 50 ff ff ff       	jmp    401020 <_init+0x20>

00000000004010d0 <close@plt>:
  4010d0:	ff 25 7a 5f 00 00    	jmp    *0x5f7a(%rip)        # 407050 <close@GLIBC_2.2.5>
  4010d6:	68 0a 00 00 00       	push   $0xa
  4010db:	e9 40 ff ff ff       	jmp    401020 <_init+0x20>

00000000004010e0 <read@plt>:
  4010e0:	ff 25 72 5f 00 00    	jmp    *0x5f72(%rip)        # 407058 <read@GLIBC_2.2.5>
  4010e6:	68 0b 00 00 00       	push   $0xb
  4010eb:	e9 30 ff ff ff       	jmp    401020 <_init+0x20>

00000000004010f0 <strcmp@plt>:
  4010f0:	ff 25 6a 5f 00 00    	jmp    *0x5f6a(%rip)        # 407060 <strcmp@GLIBC_2.2.5>
  4010f6:	68 0c 00 00 00       	push   $0xc
  4010fb:	e9 20 ff ff ff       	jmp    401020 <_init+0x20>

0000000000401100 <signal@plt>:
  401100:	ff 25 62 5f 00 00    	jmp    *0x5f62(%rip)        # 407068 <signal@GLIBC_2.2.5>
  401106:	68 0d 00 00 00       	push   $0xd
  40110b:	e9 10 ff ff ff       	jmp    401020 <_init+0x20>

0000000000401110 <gethostbyname@plt>:
  401110:	ff 25 5a 5f 00 00    	jmp    *0x5f5a(%rip)        # 407070 <gethostbyname@GLIBC_2.2.5>
  401116:	68 0e 00 00 00       	push   $0xe
  40111b:	e9 00 ff ff ff       	jmp    401020 <_init+0x20>

0000000000401120 <__memmove_chk@plt>:
  401120:	ff 25 52 5f 00 00    	jmp    *0x5f52(%rip)        # 407078 <__memmove_chk@GLIBC_2.3.4>
  401126:	68 0f 00 00 00       	push   $0xf
  40112b:	e9 f0 fe ff ff       	jmp    401020 <_init+0x20>

0000000000401130 <strtol@plt>:
  401130:	ff 25 4a 5f 00 00    	jmp    *0x5f4a(%rip)        # 407080 <strtol@GLIBC_2.2.5>
  401136:	68 10 00 00 00       	push   $0x10
  40113b:	e9 e0 fe ff ff       	jmp    401020 <_init+0x20>

0000000000401140 <memcpy@plt>:
  401140:	ff 25 42 5f 00 00    	jmp    *0x5f42(%rip)        # 407088 <memcpy@GLIBC_2.14>
  401146:	68 11 00 00 00       	push   $0x11
  40114b:	e9 d0 fe ff ff       	jmp    401020 <_init+0x20>

0000000000401150 <time@plt>:
  401150:	ff 25 3a 5f 00 00    	jmp    *0x5f3a(%rip)        # 407090 <time@GLIBC_2.2.5>
  401156:	68 12 00 00 00       	push   $0x12
  40115b:	e9 c0 fe ff ff       	jmp    401020 <_init+0x20>

0000000000401160 <random@plt>:
  401160:	ff 25 32 5f 00 00    	jmp    *0x5f32(%rip)        # 407098 <random@GLIBC_2.2.5>
  401166:	68 13 00 00 00       	push   $0x13
  40116b:	e9 b0 fe ff ff       	jmp    401020 <_init+0x20>

0000000000401170 <__isoc99_sscanf@plt>:
  401170:	ff 25 2a 5f 00 00    	jmp    *0x5f2a(%rip)        # 4070a0 <__isoc99_sscanf@GLIBC_2.7>
  401176:	68 14 00 00 00       	push   $0x14
  40117b:	e9 a0 fe ff ff       	jmp    401020 <_init+0x20>

0000000000401180 <munmap@plt>:
  401180:	ff 25 22 5f 00 00    	jmp    *0x5f22(%rip)        # 4070a8 <munmap@GLIBC_2.2.5>
  401186:	68 15 00 00 00       	push   $0x15
  40118b:	e9 90 fe ff ff       	jmp    401020 <_init+0x20>

0000000000401190 <__printf_chk@plt>:
  401190:	ff 25 1a 5f 00 00    	jmp    *0x5f1a(%rip)        # 4070b0 <__printf_chk@GLIBC_2.3.4>
  401196:	68 16 00 00 00       	push   $0x16
  40119b:	e9 80 fe ff ff       	jmp    401020 <_init+0x20>

00000000004011a0 <fopen@plt>:
  4011a0:	ff 25 12 5f 00 00    	jmp    *0x5f12(%rip)        # 4070b8 <fopen@GLIBC_2.2.5>
  4011a6:	68 17 00 00 00       	push   $0x17
  4011ab:	e9 70 fe ff ff       	jmp    401020 <_init+0x20>

00000000004011b0 <getopt@plt>:
  4011b0:	ff 25 0a 5f 00 00    	jmp    *0x5f0a(%rip)        # 4070c0 <getopt@GLIBC_2.2.5>
  4011b6:	68 18 00 00 00       	push   $0x18
  4011bb:	e9 60 fe ff ff       	jmp    401020 <_init+0x20>

00000000004011c0 <strtoul@plt>:
  4011c0:	ff 25 02 5f 00 00    	jmp    *0x5f02(%rip)        # 4070c8 <strtoul@GLIBC_2.2.5>
  4011c6:	68 19 00 00 00       	push   $0x19
  4011cb:	e9 50 fe ff ff       	jmp    401020 <_init+0x20>

00000000004011d0 <__memset_chk@plt>:
  4011d0:	ff 25 fa 5e 00 00    	jmp    *0x5efa(%rip)        # 4070d0 <__memset_chk@GLIBC_2.3.4>
  4011d6:	68 1a 00 00 00       	push   $0x1a
  4011db:	e9 40 fe ff ff       	jmp    401020 <_init+0x20>

00000000004011e0 <exit@plt>:
  4011e0:	ff 25 f2 5e 00 00    	jmp    *0x5ef2(%rip)        # 4070d8 <exit@GLIBC_2.2.5>
  4011e6:	68 1b 00 00 00       	push   $0x1b
  4011eb:	e9 30 fe ff ff       	jmp    401020 <_init+0x20>

00000000004011f0 <connect@plt>:
  4011f0:	ff 25 ea 5e 00 00    	jmp    *0x5eea(%rip)        # 4070e0 <connect@GLIBC_2.2.5>
  4011f6:	68 1c 00 00 00       	push   $0x1c
  4011fb:	e9 20 fe ff ff       	jmp    401020 <_init+0x20>

0000000000401200 <__fprintf_chk@plt>:
  401200:	ff 25 e2 5e 00 00    	jmp    *0x5ee2(%rip)        # 4070e8 <__fprintf_chk@GLIBC_2.3.4>
  401206:	68 1d 00 00 00       	push   $0x1d
  40120b:	e9 10 fe ff ff       	jmp    401020 <_init+0x20>

0000000000401210 <getc@plt>:
  401210:	ff 25 da 5e 00 00    	jmp    *0x5eda(%rip)        # 4070f0 <getc@GLIBC_2.2.5>
  401216:	68 1e 00 00 00       	push   $0x1e
  40121b:	e9 00 fe ff ff       	jmp    401020 <_init+0x20>

0000000000401220 <__sprintf_chk@plt>:
  401220:	ff 25 d2 5e 00 00    	jmp    *0x5ed2(%rip)        # 4070f8 <__sprintf_chk@GLIBC_2.3.4>
  401226:	68 1f 00 00 00       	push   $0x1f
  40122b:	e9 f0 fd ff ff       	jmp    401020 <_init+0x20>

0000000000401230 <socket@plt>:
  401230:	ff 25 ca 5e 00 00    	jmp    *0x5eca(%rip)        # 407100 <socket@GLIBC_2.2.5>
  401236:	68 20 00 00 00       	push   $0x20
  40123b:	e9 e0 fd ff ff       	jmp    401020 <_init+0x20>

Disassembly of section .text:

0000000000401240 <_start>:
  401240:	f3 0f 1e fa          	endbr64
  401244:	31 ed                	xor    %ebp,%ebp
  401246:	49 89 d1             	mov    %rdx,%r9
  401249:	5e                   	pop    %rsi
  40124a:	48 89 e2             	mov    %rsp,%rdx
  40124d:	48 83 e4 f0          	and    $0xfffffffffffffff0,%rsp
  401251:	50                   	push   %rax
  401252:	54                   	push   %rsp
  401253:	45 31 c0             	xor    %r8d,%r8d
  401256:	31 c9                	xor    %ecx,%ecx
  401258:	48 c7 c7 d7 14 40 00 	mov    $0x4014d7,%rdi
  40125f:	ff 15 73 5d 00 00    	call   *0x5d73(%rip)        # 406fd8 <__libc_start_main@GLIBC_2.34>
  401265:	f4                   	hlt
  401266:	66 2e 0f 1f 84 00 00 	cs nopw 0x0(%rax,%rax,1)
  40126d:	00 00 00 

0000000000401270 <_dl_relocate_static_pie>:
  401270:	f3 0f 1e fa          	endbr64
  401274:	c3                   	ret
  401275:	66 2e 0f 1f 84 00 00 	cs nopw 0x0(%rax,%rax,1)
  40127c:	00 00 00 
  40127f:	90                   	nop

0000000000401280 <deregister_tm_clones>:
  401280:	b8 90 74 40 00       	mov    $0x407490,%eax
  401285:	48 3d 90 74 40 00    	cmp    $0x407490,%rax
  40128b:	74 13                	je     4012a0 <deregister_tm_clones+0x20>
  40128d:	b8 00 00 00 00       	mov    $0x0,%eax
  401292:	48 85 c0             	test   %rax,%rax
  401295:	74 09                	je     4012a0 <deregister_tm_clones+0x20>
  401297:	bf 90 74 40 00       	mov    $0x407490,%edi
  40129c:	ff e0                	jmp    *%rax
  40129e:	66 90                	xchg   %ax,%ax
  4012a0:	c3                   	ret
  4012a1:	66 66 2e 0f 1f 84 00 	data16 cs nopw 0x0(%rax,%rax,1)
  4012a8:	00 00 00 00 
  4012ac:	0f 1f 40 00          	nopl   0x0(%rax)

00000000004012b0 <register_tm_clones>:
  4012b0:	be 90 74 40 00       	mov    $0x407490,%esi
  4012b5:	48 81 ee 90 74 40 00 	sub    $0x407490,%rsi
  4012bc:	48 89 f0             	mov    %rsi,%rax
  4012bf:	48 c1 ee 3f          	shr    $0x3f,%rsi
  4012c3:	48 c1 f8 03          	sar    $0x3,%rax
  4012c7:	48 01 c6             	add    %rax,%rsi
  4012ca:	48 d1 fe             	sar    $1,%rsi
  4012cd:	74 11                	je     4012e0 <register_tm_clones+0x30>
  4012cf:	b8 00 00 00 00       	mov    $0x0,%eax
  4012d4:	48 85 c0             	test   %rax,%rax
  4012d7:	74 07                	je     4012e0 <register_tm_clones+0x30>
  4012d9:	bf 90 74 40 00       	mov    $0x407490,%edi
  4012de:	ff e0                	jmp    *%rax
  4012e0:	c3                   	ret
  4012e1:	66 66 2e 0f 1f 84 00 	data16 cs nopw 0x0(%rax,%rax,1)
  4012e8:	00 00 00 00 
  4012ec:	0f 1f 40 00          	nopl   0x0(%rax)

00000000004012f0 <__do_global_dtors_aux>:
  4012f0:	f3 0f 1e fa          	endbr64
  4012f4:	80 3d ed 61 00 00 00 	cmpb   $0x0,0x61ed(%rip)        # 4074e8 <completed.0>
  4012fb:	75 13                	jne    401310 <__do_global_dtors_aux+0x20>
  4012fd:	55                   	push   %rbp
  4012fe:	48 89 e5             	mov    %rsp,%rbp
  401301:	e8 7a ff ff ff       	call   401280 <deregister_tm_clones>
  401306:	c6 05 db 61 00 00 01 	movb   $0x1,0x61db(%rip)        # 4074e8 <completed.0>
  40130d:	5d                   	pop    %rbp
  40130e:	c3                   	ret
  40130f:	90                   	nop
  401310:	c3                   	ret
  401311:	66 66 2e 0f 1f 84 00 	data16 cs nopw 0x0(%rax,%rax,1)
  401318:	00 00 00 00 
  40131c:	0f 1f 40 00          	nopl   0x0(%rax)

0000000000401320 <frame_dummy>:
  401320:	f3 0f 1e fa          	endbr64
  401324:	eb 8a                	jmp    4012b0 <register_tm_clones>

0000000000401326 <usage>:
  401326:	50                   	push   %rax
  401327:	58                   	pop    %rax
  401328:	48 83 ec 08          	sub    $0x8,%rsp
  40132c:	48 89 fa             	mov    %rdi,%rdx
  40132f:	83 3d fa 61 00 00 00 	cmpl   $0x0,0x61fa(%rip)        # 407530 <is_checker>
  401336:	74 50                	je     401388 <usage+0x62>
  401338:	48 8d 35 c9 2c 00 00 	lea    0x2cc9(%rip),%rsi        # 404008 <_IO_stdin_used+0x8>
  40133f:	bf 02 00 00 00       	mov    $0x2,%edi
  401344:	b8 00 00 00 00       	mov    $0x0,%eax
  401349:	e8 42 fe ff ff       	call   401190 <__printf_chk@plt>
  40134e:	48 8d 3d eb 2c 00 00 	lea    0x2ceb(%rip),%rdi        # 404040 <_IO_stdin_used+0x40>
  401355:	e8 26 fd ff ff       	call   401080 <puts@plt>
  40135a:	48 8d 3d bc 31 00 00 	lea    0x31bc(%rip),%rdi        # 40451d <_IO_stdin_used+0x51d>
  401361:	e8 1a fd ff ff       	call   401080 <puts@plt>
  401366:	48 8d 3d fb 2c 00 00 	lea    0x2cfb(%rip),%rdi        # 404068 <_IO_stdin_used+0x68>
  40136d:	e8 0e fd ff ff       	call   401080 <puts@plt>
  401372:	48 8d 3d be 31 00 00 	lea    0x31be(%rip),%rdi        # 404537 <_IO_stdin_used+0x537>
  401379:	e8 02 fd ff ff       	call   401080 <puts@plt>
  40137e:	bf 00 00 00 00       	mov    $0x0,%edi
  401383:	e8 58 fe ff ff       	call   4011e0 <exit@plt>
  401388:	48 8d 35 c4 31 00 00 	lea    0x31c4(%rip),%rsi        # 404553 <_IO_stdin_used+0x553>
  40138f:	bf 02 00 00 00       	mov    $0x2,%edi
  401394:	b8 00 00 00 00       	mov    $0x0,%eax
  401399:	e8 f2 fd ff ff       	call   401190 <__printf_chk@plt>
  40139e:	48 8d 3d eb 2c 00 00 	lea    0x2ceb(%rip),%rdi        # 404090 <_IO_stdin_used+0x90>
  4013a5:	e8 d6 fc ff ff       	call   401080 <puts@plt>
  4013aa:	48 8d 3d 07 2d 00 00 	lea    0x2d07(%rip),%rdi        # 4040b8 <_IO_stdin_used+0xb8>
  4013b1:	e8 ca fc ff ff       	call   401080 <puts@plt>
  4013b6:	48 8d 3d b4 31 00 00 	lea    0x31b4(%rip),%rdi        # 404571 <_IO_stdin_used+0x571>
  4013bd:	e8 be fc ff ff       	call   401080 <puts@plt>
  4013c2:	eb ba                	jmp    40137e <usage+0x58>

00000000004013c4 <initialize_target>:
  4013c4:	55                   	push   %rbp
  4013c5:	53                   	push   %rbx
  4013c6:	48 81 ec 00 10 00 00 	sub    $0x1000,%rsp
  4013cd:	48 83 0c 24 00       	orq    $0x0,(%rsp)
  4013d2:	48 81 ec 00 10 00 00 	sub    $0x1000,%rsp
  4013d9:	48 83 0c 24 00       	orq    $0x0,(%rsp)
  4013de:	48 83 ec 18          	sub    $0x18,%rsp
  4013e2:	89 f5                	mov    %esi,%ebp
  4013e4:	64 48 8b 04 25 28 00 	mov    %fs:0x28,%rax
  4013eb:	00 00 
  4013ed:	48 89 84 24 08 20 00 	mov    %rax,0x2008(%rsp)
  4013f4:	00 
  4013f5:	31 c0                	xor    %eax,%eax
  4013f7:	89 3d 23 61 00 00    	mov    %edi,0x6123(%rip)        # 407520 <check_level>
  4013fd:	8b 3d 2d 5d 00 00    	mov    0x5d2d(%rip),%edi        # 407130 <target_id>
  401403:	e8 f3 20 00 00       	call   4034fb <gencookie>
  401408:	89 c7                	mov    %eax,%edi
  40140a:	89 05 1c 61 00 00    	mov    %eax,0x611c(%rip)        # 40752c <cookie>
  401410:	e8 e6 20 00 00       	call   4034fb <gencookie>
  401415:	89 05 0d 61 00 00    	mov    %eax,0x610d(%rip)        # 407528 <authkey>
  40141b:	8b 05 0f 5d 00 00    	mov    0x5d0f(%rip),%eax        # 407130 <target_id>
  401421:	8d 78 01             	lea    0x1(%rax),%edi
  401424:	e8 17 fc ff ff       	call   401040 <srandom@plt>
  401429:	e8 32 fd ff ff       	call   401160 <random@plt>
  40142e:	89 c7                	mov    %eax,%edi
  401430:	e8 07 03 00 00       	call   40173c <scramble>
  401435:	89 c3                	mov    %eax,%ebx
  401437:	85 ed                	test   %ebp,%ebp
  401439:	75 50                	jne    40148b <initialize_target+0xc7>
  40143b:	b8 00 00 00 00       	mov    $0x0,%eax
  401440:	01 d8                	add    %ebx,%eax
  401442:	0f b7 c0             	movzwl %ax,%eax
  401445:	8d 04 c5 00 01 00 00 	lea    0x100(,%rax,8),%eax
  40144c:	89 c0                	mov    %eax,%eax
  40144e:	48 89 05 33 60 00 00 	mov    %rax,0x6033(%rip)        # 407488 <buf_offset>
  401455:	c6 05 ec 6c 00 00 72 	movb   $0x72,0x6cec(%rip)        # 408148 <target_prefix>
  40145c:	83 3d 1d 60 00 00 00 	cmpl   $0x0,0x601d(%rip)        # 407480 <notify>
  401463:	74 09                	je     40146e <initialize_target+0xaa>
  401465:	83 3d c4 60 00 00 00 	cmpl   $0x0,0x60c4(%rip)        # 407530 <is_checker>
  40146c:	74 35                	je     4014a3 <initialize_target+0xdf>
  40146e:	48 8b 84 24 08 20 00 	mov    0x2008(%rsp),%rax
  401475:	00 
  401476:	64 48 2b 04 25 28 00 	sub    %fs:0x28,%rax
  40147d:	00 00 
  40147f:	75 51                	jne    4014d2 <initialize_target+0x10e>
  401481:	48 81 c4 18 20 00 00 	add    $0x2018,%rsp
  401488:	5b                   	pop    %rbx
  401489:	5d                   	pop    %rbp
  40148a:	c3                   	ret
  40148b:	bf 00 00 00 00       	mov    $0x0,%edi
  401490:	e8 bb fc ff ff       	call   401150 <time@plt>
  401495:	89 c7                	mov    %eax,%edi
  401497:	e8 a4 fb ff ff       	call   401040 <srandom@plt>
  40149c:	e8 bf fc ff ff       	call   401160 <random@plt>
  4014a1:	eb 9d                	jmp    401440 <initialize_target+0x7c>
  4014a3:	48 89 e7             	mov    %rsp,%rdi
  4014a6:	e8 87 1d 00 00       	call   403232 <init_driver>
  4014ab:	85 c0                	test   %eax,%eax
  4014ad:	79 bf                	jns    40146e <initialize_target+0xaa>
  4014af:	48 89 e2             	mov    %rsp,%rdx
  4014b2:	48 8d 35 2f 2c 00 00 	lea    0x2c2f(%rip),%rsi        # 4040e8 <_IO_stdin_used+0xe8>
  4014b9:	bf 02 00 00 00       	mov    $0x2,%edi
  4014be:	b8 00 00 00 00       	mov    $0x0,%eax
  4014c3:	e8 c8 fc ff ff       	call   401190 <__printf_chk@plt>
  4014c8:	bf 08 00 00 00       	mov    $0x8,%edi
  4014cd:	e8 0e fd ff ff       	call   4011e0 <exit@plt>
  4014d2:	e8 d7 10 00 00       	call   4025ae <__stack_chk_fail>

00000000004014d7 <main>:
  4014d7:	f3 0f 1e fa          	endbr64
  4014db:	41 56                	push   %r14
  4014dd:	41 55                	push   %r13
  4014df:	41 54                	push   %r12
  4014e1:	55                   	push   %rbp
  4014e2:	53                   	push   %rbx
  4014e3:	48 83 ec 60          	sub    $0x60,%rsp
  4014e7:	89 fd                	mov    %edi,%ebp
  4014e9:	48 89 f3             	mov    %rsi,%rbx
  4014ec:	64 48 8b 04 25 28 00 	mov    %fs:0x28,%rax
  4014f3:	00 00 
  4014f5:	48 89 44 24 58       	mov    %rax,0x58(%rsp)
  4014fa:	31 c0                	xor    %eax,%eax
  4014fc:	48 b8 53 70 69 72 69 	movabs $0x6465746972697053,%rax
  401503:	74 65 64 
  401506:	48 89 04 24          	mov    %rax,(%rsp)
  40150a:	48 b8 64 41 77 61 79 	movabs $0x4e437961774164,%rax
  401511:	43 4e 00 
  401514:	48 89 44 24 07       	mov    %rax,0x7(%rsp)
  401519:	48 c7 c6 9d 24 40 00 	mov    $0x40249d,%rsi
  401520:	bf 0b 00 00 00       	mov    $0xb,%edi
  401525:	e8 d6 fb ff ff       	call   401100 <signal@plt>
  40152a:	48 c7 c6 43 24 40 00 	mov    $0x402443,%rsi
  401531:	bf 07 00 00 00       	mov    $0x7,%edi
  401536:	e8 c5 fb ff ff       	call   401100 <signal@plt>
  40153b:	48 c7 c6 f7 24 40 00 	mov    $0x4024f7,%rsi
  401542:	bf 04 00 00 00       	mov    $0x4,%edi
  401547:	e8 b4 fb ff ff       	call   401100 <signal@plt>
  40154c:	83 3d dd 5f 00 00 00 	cmpl   $0x0,0x5fdd(%rip)        # 407530 <is_checker>
  401553:	75 26                	jne    40157b <main+0xa4>
  401555:	4c 8d 25 2e 30 00 00 	lea    0x302e(%rip),%r12        # 40458a <_IO_stdin_used+0x58a>
  40155c:	48 8b 05 3d 5f 00 00 	mov    0x5f3d(%rip),%rax        # 4074a0 <stdin@GLIBC_2.2.5>
  401563:	48 89 05 ae 5f 00 00 	mov    %rax,0x5fae(%rip)        # 407518 <infile>
  40156a:	41 bd 00 00 00 00    	mov    $0x0,%r13d
  401570:	41 be 00 00 00 00    	mov    $0x0,%r14d
  401576:	e9 8d 00 00 00       	jmp    401608 <main+0x131>
  40157b:	48 c7 c6 51 25 40 00 	mov    $0x402551,%rsi
  401582:	bf 0e 00 00 00       	mov    $0xe,%edi
  401587:	e8 74 fb ff ff       	call   401100 <signal@plt>
  40158c:	bf 02 00 00 00       	mov    $0x2,%edi
  401591:	e8 2a fb ff ff       	call   4010c0 <alarm@plt>
  401596:	4c 8d 25 f2 2f 00 00 	lea    0x2ff2(%rip),%r12        # 40458f <_IO_stdin_used+0x58f>
  40159d:	eb bd                	jmp    40155c <main+0x85>
  40159f:	48 8b 3b             	mov    (%rbx),%rdi
  4015a2:	e8 7f fd ff ff       	call   401326 <usage>
  4015a7:	48 8d 35 5b 30 00 00 	lea    0x305b(%rip),%rsi        # 404609 <_IO_stdin_used+0x609>
  4015ae:	48 8b 3d 0b 5f 00 00 	mov    0x5f0b(%rip),%rdi        # 4074c0 <optarg@GLIBC_2.2.5>
  4015b5:	e8 e6 fb ff ff       	call   4011a0 <fopen@plt>
  4015ba:	48 89 05 57 5f 00 00 	mov    %rax,0x5f57(%rip)        # 407518 <infile>
  4015c1:	48 85 c0             	test   %rax,%rax
  4015c4:	75 42                	jne    401608 <main+0x131>
  4015c6:	48 8b 0d f3 5e 00 00 	mov    0x5ef3(%rip),%rcx        # 4074c0 <optarg@GLIBC_2.2.5>
  4015cd:	48 8d 15 c5 2f 00 00 	lea    0x2fc5(%rip),%rdx        # 404599 <_IO_stdin_used+0x599>
  4015d4:	be 02 00 00 00       	mov    $0x2,%esi
  4015d9:	48 8b 3d 00 5f 00 00 	mov    0x5f00(%rip),%rdi        # 4074e0 <stderr@GLIBC_2.2.5>
  4015e0:	e8 1b fc ff ff       	call   401200 <__fprintf_chk@plt>
  4015e5:	b8 01 00 00 00       	mov    $0x1,%eax
  4015ea:	e9 2b 01 00 00       	jmp    40171a <main+0x243>
  4015ef:	ba 10 00 00 00       	mov    $0x10,%edx
  4015f4:	be 00 00 00 00       	mov    $0x0,%esi
  4015f9:	48 8b 3d c0 5e 00 00 	mov    0x5ec0(%rip),%rdi        # 4074c0 <optarg@GLIBC_2.2.5>
  401600:	e8 bb fb ff ff       	call   4011c0 <strtoul@plt>
  401605:	41 89 c6             	mov    %eax,%r14d
  401608:	4c 89 e2             	mov    %r12,%rdx
  40160b:	48 89 de             	mov    %rbx,%rsi
  40160e:	89 ef                	mov    %ebp,%edi
  401610:	e8 9b fb ff ff       	call   4011b0 <getopt@plt>
  401615:	3c ff                	cmp    $0xff,%al
  401617:	74 7a                	je     401693 <main+0x1bc>
  401619:	8d 50 9f             	lea    -0x61(%rax),%edx
  40161c:	80 fa 14             	cmp    $0x14,%dl
  40161f:	77 51                	ja     401672 <main+0x19b>
  401621:	0f b6 d2             	movzbl %dl,%edx
  401624:	48 8d 0d 79 31 00 00 	lea    0x3179(%rip),%rcx        # 4047a4 <_IO_stdin_used+0x7a4>
  40162b:	48 63 14 91          	movslq (%rcx,%rdx,4),%rdx
  40162f:	48 01 ca             	add    %rcx,%rdx
  401632:	3e ff e2             	notrack jmp *%rdx
  401635:	ba 0a 00 00 00       	mov    $0xa,%edx
  40163a:	be 00 00 00 00       	mov    $0x0,%esi
  40163f:	48 8b 3d 7a 5e 00 00 	mov    0x5e7a(%rip),%rdi        # 4074c0 <optarg@GLIBC_2.2.5>
  401646:	e8 e5 fa ff ff       	call   401130 <strtol@plt>
  40164b:	41 89 c5             	mov    %eax,%r13d
  40164e:	eb b8                	jmp    401608 <main+0x131>
  401650:	c7 05 26 5e 00 00 00 	movl   $0x0,0x5e26(%rip)        # 407480 <notify>
  401657:	00 00 00 
  40165a:	eb ac                	jmp    401608 <main+0x131>
  40165c:	48 89 e7             	mov    %rsp,%rdi
  40165f:	ba 50 00 00 00       	mov    $0x50,%edx
  401664:	48 8b 35 55 5e 00 00 	mov    0x5e55(%rip),%rsi        # 4074c0 <optarg@GLIBC_2.2.5>
  40166b:	e8 e0 f9 ff ff       	call   401050 <strncpy@plt>
  401670:	eb 96                	jmp    401608 <main+0x131>
  401672:	0f be d0             	movsbl %al,%edx
  401675:	48 8d 35 3a 2f 00 00 	lea    0x2f3a(%rip),%rsi        # 4045b6 <_IO_stdin_used+0x5b6>
  40167c:	bf 02 00 00 00       	mov    $0x2,%edi
  401681:	b8 00 00 00 00       	mov    $0x0,%eax
  401686:	e8 05 fb ff ff       	call   401190 <__printf_chk@plt>
  40168b:	48 8b 3b             	mov    (%rbx),%rdi
  40168e:	e8 93 fc ff ff       	call   401326 <usage>
  401693:	be 01 00 00 00       	mov    $0x1,%esi
  401698:	44 89 ef             	mov    %r13d,%edi
  40169b:	e8 24 fd ff ff       	call   4013c4 <initialize_target>
  4016a0:	83 3d 89 5e 00 00 00 	cmpl   $0x0,0x5e89(%rip)        # 407530 <is_checker>
  4016a7:	74 3f                	je     4016e8 <main+0x211>
  4016a9:	44 39 35 78 5e 00 00 	cmp    %r14d,0x5e78(%rip)        # 407528 <authkey>
  4016b0:	75 13                	jne    4016c5 <main+0x1ee>
  4016b2:	48 89 e7             	mov    %rsp,%rdi
  4016b5:	48 8b 35 84 5a 00 00 	mov    0x5a84(%rip),%rsi        # 407140 <user_id>
  4016bc:	e8 2f fa ff ff       	call   4010f0 <strcmp@plt>
  4016c1:	85 c0                	test   %eax,%eax
  4016c3:	74 23                	je     4016e8 <main+0x211>
  4016c5:	44 89 f2             	mov    %r14d,%edx
  4016c8:	48 8d 35 41 2a 00 00 	lea    0x2a41(%rip),%rsi        # 404110 <_IO_stdin_used+0x110>
  4016cf:	bf 02 00 00 00       	mov    $0x2,%edi
  4016d4:	b8 00 00 00 00       	mov    $0x0,%eax
  4016d9:	e8 b2 fa ff ff       	call   401190 <__printf_chk@plt>
  4016de:	b8 00 00 00 00       	mov    $0x0,%eax
  4016e3:	e8 99 09 00 00       	call   402081 <check_fail>
  4016e8:	8b 15 3e 5e 00 00    	mov    0x5e3e(%rip),%edx        # 40752c <cookie>
  4016ee:	48 8d 35 d4 2e 00 00 	lea    0x2ed4(%rip),%rsi        # 4045c9 <_IO_stdin_used+0x5c9>
  4016f5:	bf 02 00 00 00       	mov    $0x2,%edi
  4016fa:	b8 00 00 00 00       	mov    $0x0,%eax
  4016ff:	e8 8c fa ff ff       	call   401190 <__printf_chk@plt>
  401704:	be 00 00 00 00       	mov    $0x0,%esi
  401709:	48 8b 3d 78 5d 00 00 	mov    0x5d78(%rip),%rdi        # 407488 <buf_offset>
  401710:	e8 f3 0e 00 00       	call   402608 <launch>
  401715:	b8 00 00 00 00       	mov    $0x0,%eax
  40171a:	48 8b 54 24 58       	mov    0x58(%rsp),%rdx
  40171f:	64 48 2b 14 25 28 00 	sub    %fs:0x28,%rdx
  401726:	00 00 
  401728:	75 0d                	jne    401737 <main+0x260>
  40172a:	48 83 c4 60          	add    $0x60,%rsp
  40172e:	5b                   	pop    %rbx
  40172f:	5d                   	pop    %rbp
  401730:	41 5c                	pop    %r12
  401732:	41 5d                	pop    %r13
  401734:	41 5e                	pop    %r14
  401736:	c3                   	ret
  401737:	e8 72 0e 00 00       	call   4025ae <__stack_chk_fail>

000000000040173c <scramble>:
  40173c:	f3 0f 1e fa          	endbr64
  401740:	48 83 ec 38          	sub    $0x38,%rsp
  401744:	64 48 8b 04 25 28 00 	mov    %fs:0x28,%rax
  40174b:	00 00 
  40174d:	48 89 44 24 28       	mov    %rax,0x28(%rsp)
  401752:	31 c0                	xor    %eax,%eax
  401754:	eb 10                	jmp    401766 <scramble+0x2a>
  401756:	69 d0 5b ca 00 00    	imul   $0xca5b,%eax,%edx
  40175c:	01 fa                	add    %edi,%edx
  40175e:	89 c1                	mov    %eax,%ecx
  401760:	89 14 8c             	mov    %edx,(%rsp,%rcx,4)
  401763:	83 c0 01             	add    $0x1,%eax
  401766:	83 f8 09             	cmp    $0x9,%eax
  401769:	76 eb                	jbe    401756 <scramble+0x1a>
  40176b:	8b 44 24 0c          	mov    0xc(%rsp),%eax
  40176f:	69 c0 48 39 00 00    	imul   $0x3948,%eax,%eax
  401775:	89 44 24 0c          	mov    %eax,0xc(%rsp)
  401779:	8b 44 24 0c          	mov    0xc(%rsp),%eax
  40177d:	69 c0 27 f1 00 00    	imul   $0xf127,%eax,%eax
  401783:	89 44 24 0c          	mov    %eax,0xc(%rsp)
  401787:	8b 44 24 14          	mov    0x14(%rsp),%eax
  40178b:	69 c0 7d 42 00 00    	imul   $0x427d,%eax,%eax
  401791:	89 44 24 14          	mov    %eax,0x14(%rsp)
  401795:	8b 44 24 1c          	mov    0x1c(%rsp),%eax
  401799:	69 c0 0b 9b 00 00    	imul   $0x9b0b,%eax,%eax
  40179f:	89 44 24 1c          	mov    %eax,0x1c(%rsp)
  4017a3:	8b 44 24 10          	mov    0x10(%rsp),%eax
  4017a7:	69 c0 5a c6 00 00    	imul   $0xc65a,%eax,%eax
  4017ad:	89 44 24 10          	mov    %eax,0x10(%rsp)
  4017b1:	8b 44 24 04          	mov    0x4(%rsp),%eax
  4017b5:	69 c0 4d 1b 00 00    	imul   $0x1b4d,%eax,%eax
  4017bb:	89 44 24 04          	mov    %eax,0x4(%rsp)
  4017bf:	8b 44 24 20          	mov    0x20(%rsp),%eax
  4017c3:	69 c0 df c5 00 00    	imul   $0xc5df,%eax,%eax
  4017c9:	89 44 24 20          	mov    %eax,0x20(%rsp)
  4017cd:	8b 04 24             	mov    (%rsp),%eax
  4017d0:	69 c0 b1 35 00 00    	imul   $0x35b1,%eax,%eax
  4017d6:	89 04 24             	mov    %eax,(%rsp)
  4017d9:	8b 44 24 08          	mov    0x8(%rsp),%eax
  4017dd:	69 c0 cf 82 00 00    	imul   $0x82cf,%eax,%eax
  4017e3:	89 44 24 08          	mov    %eax,0x8(%rsp)
  4017e7:	8b 44 24 0c          	mov    0xc(%rsp),%eax
  4017eb:	69 c0 bc 00 00 00    	imul   $0xbc,%eax,%eax
  4017f1:	89 44 24 0c          	mov    %eax,0xc(%rsp)
  4017f5:	8b 44 24 0c          	mov    0xc(%rsp),%eax
  4017f9:	69 c0 50 5e 00 00    	imul   $0x5e50,%eax,%eax
  4017ff:	89 44 24 0c          	mov    %eax,0xc(%rsp)
  401803:	8b 44 24 20          	mov    0x20(%rsp),%eax
  401807:	69 c0 80 48 00 00    	imul   $0x4880,%eax,%eax
  40180d:	89 44 24 20          	mov    %eax,0x20(%rsp)
  401811:	8b 44 24 24          	mov    0x24(%rsp),%eax
  401815:	69 c0 a9 a9 00 00    	imul   $0xa9a9,%eax,%eax
  40181b:	89 44 24 24          	mov    %eax,0x24(%rsp)
  40181f:	8b 44 24 0c          	mov    0xc(%rsp),%eax
  401823:	69 c0 fe 68 00 00    	imul   $0x68fe,%eax,%eax
  401829:	89 44 24 0c          	mov    %eax,0xc(%rsp)
  40182d:	8b 44 24 08          	mov    0x8(%rsp),%eax
  401831:	69 c0 e2 15 00 00    	imul   $0x15e2,%eax,%eax
  401837:	89 44 24 08          	mov    %eax,0x8(%rsp)
  40183b:	8b 44 24 0c          	mov    0xc(%rsp),%eax
  40183f:	69 c0 86 18 00 00    	imul   $0x1886,%eax,%eax
  401845:	89 44 24 0c          	mov    %eax,0xc(%rsp)
  401849:	8b 44 24 04          	mov    0x4(%rsp),%eax
  40184d:	69 c0 37 ba 00 00    	imul   $0xba37,%eax,%eax
  401853:	89 44 24 04          	mov    %eax,0x4(%rsp)
  401857:	8b 44 24 10          	mov    0x10(%rsp),%eax
  40185b:	69 c0 12 85 00 00    	imul   $0x8512,%eax,%eax
  401861:	89 44 24 10          	mov    %eax,0x10(%rsp)
  401865:	8b 44 24 08          	mov    0x8(%rsp),%eax
  401869:	69 c0 8e 46 00 00    	imul   $0x468e,%eax,%eax
  40186f:	89 44 24 08          	mov    %eax,0x8(%rsp)
  401873:	8b 44 24 24          	mov    0x24(%rsp),%eax
  401877:	69 c0 84 de 00 00    	imul   $0xde84,%eax,%eax
  40187d:	89 44 24 24          	mov    %eax,0x24(%rsp)
  401881:	8b 44 24 04          	mov    0x4(%rsp),%eax
  401885:	69 c0 24 6e 00 00    	imul   $0x6e24,%eax,%eax
  40188b:	89 44 24 04          	mov    %eax,0x4(%rsp)
  40188f:	8b 44 24 24          	mov    0x24(%rsp),%eax
  401893:	69 c0 96 d9 00 00    	imul   $0xd996,%eax,%eax
  401899:	89 44 24 24          	mov    %eax,0x24(%rsp)
  40189d:	8b 44 24 08          	mov    0x8(%rsp),%eax
  4018a1:	69 c0 ed 88 00 00    	imul   $0x88ed,%eax,%eax
  4018a7:	89 44 24 08          	mov    %eax,0x8(%rsp)
  4018ab:	8b 44 24 20          	mov    0x20(%rsp),%eax
  4018af:	69 c0 7e 73 00 00    	imul   $0x737e,%eax,%eax
  4018b5:	89 44 24 20          	mov    %eax,0x20(%rsp)
  4018b9:	8b 44 24 20          	mov    0x20(%rsp),%eax
  4018bd:	69 c0 58 6e 00 00    	imul   $0x6e58,%eax,%eax
  4018c3:	89 44 24 20          	mov    %eax,0x20(%rsp)
  4018c7:	8b 44 24 20          	mov    0x20(%rsp),%eax
  4018cb:	69 c0 c3 b9 00 00    	imul   $0xb9c3,%eax,%eax
  4018d1:	89 44 24 20          	mov    %eax,0x20(%rsp)
  4018d5:	8b 44 24 24          	mov    0x24(%rsp),%eax
  4018d9:	69 c0 9b 64 00 00    	imul   $0x649b,%eax,%eax
  4018df:	89 44 24 24          	mov    %eax,0x24(%rsp)
  4018e3:	8b 44 24 20          	mov    0x20(%rsp),%eax
  4018e7:	69 c0 a2 9e 00 00    	imul   $0x9ea2,%eax,%eax
  4018ed:	89 44 24 20          	mov    %eax,0x20(%rsp)
  4018f1:	8b 44 24 18          	mov    0x18(%rsp),%eax
  4018f5:	69 c0 1a 6e 00 00    	imul   $0x6e1a,%eax,%eax
  4018fb:	89 44 24 18          	mov    %eax,0x18(%rsp)
  4018ff:	8b 44 24 04          	mov    0x4(%rsp),%eax
  401903:	69 c0 6f 5c 00 00    	imul   $0x5c6f,%eax,%eax
  401909:	89 44 24 04          	mov    %eax,0x4(%rsp)
  40190d:	8b 44 24 24          	mov    0x24(%rsp),%eax
  401911:	69 c0 6e 5a 00 00    	imul   $0x5a6e,%eax,%eax
  401917:	89 44 24 24          	mov    %eax,0x24(%rsp)
  40191b:	8b 44 24 1c          	mov    0x1c(%rsp),%eax
  40191f:	69 c0 28 d3 00 00    	imul   $0xd328,%eax,%eax
  401925:	89 44 24 1c          	mov    %eax,0x1c(%rsp)
  401929:	8b 44 24 10          	mov    0x10(%rsp),%eax
  40192d:	69 c0 a3 7e 00 00    	imul   $0x7ea3,%eax,%eax
  401933:	89 44 24 10          	mov    %eax,0x10(%rsp)
  401937:	8b 44 24 04          	mov    0x4(%rsp),%eax
  40193b:	69 c0 5a 11 00 00    	imul   $0x115a,%eax,%eax
  401941:	89 44 24 04          	mov    %eax,0x4(%rsp)
  401945:	8b 44 24 18          	mov    0x18(%rsp),%eax
  401949:	69 c0 58 78 00 00    	imul   $0x7858,%eax,%eax
  40194f:	89 44 24 18          	mov    %eax,0x18(%rsp)
  401953:	8b 44 24 1c          	mov    0x1c(%rsp),%eax
  401957:	69 c0 1a d2 00 00    	imul   $0xd21a,%eax,%eax
  40195d:	89 44 24 1c          	mov    %eax,0x1c(%rsp)
  401961:	8b 44 24 04          	mov    0x4(%rsp),%eax
  401965:	69 c0 af e9 00 00    	imul   $0xe9af,%eax,%eax
  40196b:	89 44 24 04          	mov    %eax,0x4(%rsp)
  40196f:	8b 04 24             	mov    (%rsp),%eax
  401972:	69 c0 80 1a 00 00    	imul   $0x1a80,%eax,%eax
  401978:	89 04 24             	mov    %eax,(%rsp)
  40197b:	8b 44 24 20          	mov    0x20(%rsp),%eax
  40197f:	69 c0 f9 ba 00 00    	imul   $0xbaf9,%eax,%eax
  401985:	89 44 24 20          	mov    %eax,0x20(%rsp)
  401989:	8b 44 24 04          	mov    0x4(%rsp),%eax
  40198d:	69 c0 58 7e 00 00    	imul   $0x7e58,%eax,%eax
  401993:	89 44 24 04          	mov    %eax,0x4(%rsp)
  401997:	8b 44 24 04          	mov    0x4(%rsp),%eax
  40199b:	69 c0 38 02 00 00    	imul   $0x238,%eax,%eax
  4019a1:	89 44 24 04          	mov    %eax,0x4(%rsp)
  4019a5:	8b 44 24 1c          	mov    0x1c(%rsp),%eax
  4019a9:	69 c0 f9 f5 00 00    	imul   $0xf5f9,%eax,%eax
  4019af:	89 44 24 1c          	mov    %eax,0x1c(%rsp)
  4019b3:	8b 44 24 1c          	mov    0x1c(%rsp),%eax
  4019b7:	69 c0 5e 3a 00 00    	imul   $0x3a5e,%eax,%eax
  4019bd:	89 44 24 1c          	mov    %eax,0x1c(%rsp)
  4019c1:	8b 44 24 24          	mov    0x24(%rsp),%eax
  4019c5:	69 c0 17 75 00 00    	imul   $0x7517,%eax,%eax
  4019cb:	89 44 24 24          	mov    %eax,0x24(%rsp)
  4019cf:	8b 04 24             	mov    (%rsp),%eax
  4019d2:	69 c0 3b 9c 00 00    	imul   $0x9c3b,%eax,%eax
  4019d8:	89 04 24             	mov    %eax,(%rsp)
  4019db:	8b 44 24 18          	mov    0x18(%rsp),%eax
  4019df:	69 c0 76 2c 00 00    	imul   $0x2c76,%eax,%eax
  4019e5:	89 44 24 18          	mov    %eax,0x18(%rsp)
  4019e9:	8b 44 24 20          	mov    0x20(%rsp),%eax
  4019ed:	69 c0 7c 46 00 00    	imul   $0x467c,%eax,%eax
  4019f3:	89 44 24 20          	mov    %eax,0x20(%rsp)
  4019f7:	8b 44 24 14          	mov    0x14(%rsp),%eax
  4019fb:	69 c0 4f 0b 00 00    	imul   $0xb4f,%eax,%eax
  401a01:	89 44 24 14          	mov    %eax,0x14(%rsp)
  401a05:	8b 44 24 24          	mov    0x24(%rsp),%eax
  401a09:	69 c0 d8 57 00 00    	imul   $0x57d8,%eax,%eax
  401a0f:	89 44 24 24          	mov    %eax,0x24(%rsp)
  401a13:	8b 44 24 0c          	mov    0xc(%rsp),%eax
  401a17:	69 c0 50 8a 00 00    	imul   $0x8a50,%eax,%eax
  401a1d:	89 44 24 0c          	mov    %eax,0xc(%rsp)
  401a21:	8b 44 24 24          	mov    0x24(%rsp),%eax
  401a25:	69 c0 87 0c 00 00    	imul   $0xc87,%eax,%eax
  401a2b:	89 44 24 24          	mov    %eax,0x24(%rsp)
  401a2f:	8b 44 24 18          	mov    0x18(%rsp),%eax
  401a33:	69 c0 ae b6 00 00    	imul   $0xb6ae,%eax,%eax
  401a39:	89 44 24 18          	mov    %eax,0x18(%rsp)
  401a3d:	8b 44 24 20          	mov    0x20(%rsp),%eax
  401a41:	69 c0 1c 08 00 00    	imul   $0x81c,%eax,%eax
  401a47:	89 44 24 20          	mov    %eax,0x20(%rsp)
  401a4b:	8b 44 24 1c          	mov    0x1c(%rsp),%eax
  401a4f:	69 c0 d2 68 00 00    	imul   $0x68d2,%eax,%eax
  401a55:	89 44 24 1c          	mov    %eax,0x1c(%rsp)
  401a59:	8b 44 24 20          	mov    0x20(%rsp),%eax
  401a5d:	69 c0 2d 5f 00 00    	imul   $0x5f2d,%eax,%eax
  401a63:	89 44 24 20          	mov    %eax,0x20(%rsp)
  401a67:	8b 44 24 14          	mov    0x14(%rsp),%eax
  401a6b:	69 c0 66 ec 00 00    	imul   $0xec66,%eax,%eax
  401a71:	89 44 24 14          	mov    %eax,0x14(%rsp)
  401a75:	8b 44 24 24          	mov    0x24(%rsp),%eax
  401a79:	69 c0 45 1f 00 00    	imul   $0x1f45,%eax,%eax
  401a7f:	89 44 24 24          	mov    %eax,0x24(%rsp)
  401a83:	8b 44 24 08          	mov    0x8(%rsp),%eax
  401a87:	69 c0 39 c8 00 00    	imul   $0xc839,%eax,%eax
  401a8d:	89 44 24 08          	mov    %eax,0x8(%rsp)
  401a91:	8b 44 24 08          	mov    0x8(%rsp),%eax
  401a95:	69 c0 fa 76 00 00    	imul   $0x76fa,%eax,%eax
  401a9b:	89 44 24 08          	mov    %eax,0x8(%rsp)
  401a9f:	8b 44 24 0c          	mov    0xc(%rsp),%eax
  401aa3:	69 c0 1d 02 00 00    	imul   $0x21d,%eax,%eax
  401aa9:	89 44 24 0c          	mov    %eax,0xc(%rsp)
  401aad:	8b 44 24 1c          	mov    0x1c(%rsp),%eax
  401ab1:	69 c0 d7 0e 00 00    	imul   $0xed7,%eax,%eax
  401ab7:	89 44 24 1c          	mov    %eax,0x1c(%rsp)
  401abb:	8b 44 24 1c          	mov    0x1c(%rsp),%eax
  401abf:	69 c0 df 09 00 00    	imul   $0x9df,%eax,%eax
  401ac5:	89 44 24 1c          	mov    %eax,0x1c(%rsp)
  401ac9:	8b 44 24 14          	mov    0x14(%rsp),%eax
  401acd:	69 c0 31 2e 00 00    	imul   $0x2e31,%eax,%eax
  401ad3:	89 44 24 14          	mov    %eax,0x14(%rsp)
  401ad7:	8b 44 24 04          	mov    0x4(%rsp),%eax
  401adb:	69 c0 72 1a 00 00    	imul   $0x1a72,%eax,%eax
  401ae1:	89 44 24 04          	mov    %eax,0x4(%rsp)
  401ae5:	8b 44 24 08          	mov    0x8(%rsp),%eax
  401ae9:	69 c0 d8 31 00 00    	imul   $0x31d8,%eax,%eax
  401aef:	89 44 24 08          	mov    %eax,0x8(%rsp)
  401af3:	8b 44 24 10          	mov    0x10(%rsp),%eax
  401af7:	69 c0 3a 56 00 00    	imul   $0x563a,%eax,%eax
  401afd:	89 44 24 10          	mov    %eax,0x10(%rsp)
  401b01:	8b 44 24 18          	mov    0x18(%rsp),%eax
  401b05:	69 c0 2d 01 00 00    	imul   $0x12d,%eax,%eax
  401b0b:	89 44 24 18          	mov    %eax,0x18(%rsp)
  401b0f:	8b 44 24 14          	mov    0x14(%rsp),%eax
  401b13:	69 c0 96 34 00 00    	imul   $0x3496,%eax,%eax
  401b19:	89 44 24 14          	mov    %eax,0x14(%rsp)
  401b1d:	8b 44 24 04          	mov    0x4(%rsp),%eax
  401b21:	69 c0 17 de 00 00    	imul   $0xde17,%eax,%eax
  401b27:	89 44 24 04          	mov    %eax,0x4(%rsp)
  401b2b:	8b 44 24 10          	mov    0x10(%rsp),%eax
  401b2f:	69 c0 5e cc 00 00    	imul   $0xcc5e,%eax,%eax
  401b35:	89 44 24 10          	mov    %eax,0x10(%rsp)
  401b39:	8b 04 24             	mov    (%rsp),%eax
  401b3c:	69 c0 93 84 00 00    	imul   $0x8493,%eax,%eax
  401b42:	89 04 24             	mov    %eax,(%rsp)
  401b45:	8b 44 24 04          	mov    0x4(%rsp),%eax
  401b49:	69 c0 a9 9e 00 00    	imul   $0x9ea9,%eax,%eax
  401b4f:	89 44 24 04          	mov    %eax,0x4(%rsp)
  401b53:	b8 00 00 00 00       	mov    $0x0,%eax
  401b58:	ba 00 00 00 00       	mov    $0x0,%edx
  401b5d:	eb 0a                	jmp    401b69 <scramble+0x42d>
  401b5f:	89 c1                	mov    %eax,%ecx
  401b61:	8b 0c 8c             	mov    (%rsp,%rcx,4),%ecx
  401b64:	01 ca                	add    %ecx,%edx
  401b66:	83 c0 01             	add    $0x1,%eax
  401b69:	83 f8 09             	cmp    $0x9,%eax
  401b6c:	76 f1                	jbe    401b5f <scramble+0x423>
  401b6e:	48 8b 44 24 28       	mov    0x28(%rsp),%rax
  401b73:	64 48 2b 04 25 28 00 	sub    %fs:0x28,%rax
  401b7a:	00 00 
  401b7c:	75 07                	jne    401b85 <scramble+0x449>
  401b7e:	89 d0                	mov    %edx,%eax
  401b80:	48 83 c4 38          	add    $0x38,%rsp
  401b84:	c3                   	ret
  401b85:	e8 24 0a 00 00       	call   4025ae <__stack_chk_fail>

0000000000401b8a <getbuf>:
  401b8a:	f3 0f 1e fa          	endbr64
  401b8e:	48 83 ec 38          	sub    $0x38,%rsp
  401b92:	48 89 e7             	mov    %rsp,%rdi
  401b95:	e8 25 05 00 00       	call   4020bf <Gets>
  401b9a:	b8 01 00 00 00       	mov    $0x1,%eax
  401b9f:	48 83 c4 38          	add    $0x38,%rsp
  401ba3:	c3                   	ret

0000000000401ba4 <touch1>:
  401ba4:	f3 0f 1e fa          	endbr64
  401ba8:	50                   	push   %rax
  401ba9:	58                   	pop    %rax
  401baa:	48 83 ec 08          	sub    $0x8,%rsp
  401bae:	c7 05 6c 59 00 00 01 	movl   $0x1,0x596c(%rip)        # 407524 <vlevel>
  401bb5:	00 00 00 
  401bb8:	48 8d 3d 4c 2a 00 00 	lea    0x2a4c(%rip),%rdi        # 40460b <_IO_stdin_used+0x60b>
  401bbf:	e8 bc f4 ff ff       	call   401080 <puts@plt>
  401bc4:	bf 01 00 00 00       	mov    $0x1,%edi
  401bc9:	e8 6e 07 00 00       	call   40233c <validate>
  401bce:	bf 00 00 00 00       	mov    $0x0,%edi
  401bd3:	e8 08 f6 ff ff       	call   4011e0 <exit@plt>

0000000000401bd8 <touch2>:
  401bd8:	f3 0f 1e fa          	endbr64
  401bdc:	50                   	push   %rax
  401bdd:	58                   	pop    %rax
  401bde:	48 83 ec 08          	sub    $0x8,%rsp
  401be2:	89 fa                	mov    %edi,%edx
  401be4:	c7 05 36 59 00 00 02 	movl   $0x2,0x5936(%rip)        # 407524 <vlevel>
  401beb:	00 00 00 
  401bee:	39 3d 38 59 00 00    	cmp    %edi,0x5938(%rip)        # 40752c <cookie>
  401bf4:	74 2a                	je     401c20 <touch2+0x48>
  401bf6:	48 8d 35 83 25 00 00 	lea    0x2583(%rip),%rsi        # 404180 <_IO_stdin_used+0x180>
  401bfd:	bf 02 00 00 00       	mov    $0x2,%edi
  401c02:	b8 00 00 00 00       	mov    $0x0,%eax
  401c07:	e8 84 f5 ff ff       	call   401190 <__printf_chk@plt>
  401c0c:	bf 02 00 00 00       	mov    $0x2,%edi
  401c11:	e8 01 08 00 00       	call   402417 <fail>
  401c16:	bf 00 00 00 00       	mov    $0x0,%edi
  401c1b:	e8 c0 f5 ff ff       	call   4011e0 <exit@plt>
  401c20:	48 8d 35 31 25 00 00 	lea    0x2531(%rip),%rsi        # 404158 <_IO_stdin_used+0x158>
  401c27:	bf 02 00 00 00       	mov    $0x2,%edi
  401c2c:	b8 00 00 00 00       	mov    $0x0,%eax
  401c31:	e8 5a f5 ff ff       	call   401190 <__printf_chk@plt>
  401c36:	bf 02 00 00 00       	mov    $0x2,%edi
  401c3b:	e8 fc 06 00 00       	call   40233c <validate>
  401c40:	eb d4                	jmp    401c16 <touch2+0x3e>

0000000000401c42 <hexmatch>:
  401c42:	f3 0f 1e fa          	endbr64
  401c46:	41 54                	push   %r12
  401c48:	55                   	push   %rbp
  401c49:	53                   	push   %rbx
  401c4a:	48 83 c4 80          	add    $0xffffffffffffff80,%rsp
  401c4e:	89 fd                	mov    %edi,%ebp
  401c50:	48 89 f3             	mov    %rsi,%rbx
  401c53:	64 48 8b 04 25 28 00 	mov    %fs:0x28,%rax
  401c5a:	00 00 
  401c5c:	48 89 44 24 78       	mov    %rax,0x78(%rsp)
  401c61:	31 c0                	xor    %eax,%eax
  401c63:	e8 f8 f4 ff ff       	call   401160 <random@plt>
  401c68:	48 89 c6             	mov    %rax,%rsi
  401c6b:	48 ba 0b d7 a3 70 3d 	movabs $0xa3d70a3d70a3d70b,%rdx
  401c72:	0a d7 a3 
  401c75:	48 f7 ea             	imul   %rdx
  401c78:	48 8d 0c 32          	lea    (%rdx,%rsi,1),%rcx
  401c7c:	48 c1 f9 06          	sar    $0x6,%rcx
  401c80:	48 89 f0             	mov    %rsi,%rax
  401c83:	48 c1 f8 3f          	sar    $0x3f,%rax
  401c87:	48 29 c1             	sub    %rax,%rcx
  401c8a:	48 8d 04 89          	lea    (%rcx,%rcx,4),%rax
  401c8e:	48 8d 04 80          	lea    (%rax,%rax,4),%rax
  401c92:	48 c1 e0 02          	shl    $0x2,%rax
  401c96:	48 29 c6             	sub    %rax,%rsi
  401c99:	4c 8d 24 34          	lea    (%rsp,%rsi,1),%r12
  401c9d:	ba 6e 00 00 00       	mov    $0x6e,%edx
  401ca2:	48 39 d6             	cmp    %rdx,%rsi
  401ca5:	48 0f 43 d6          	cmovae %rsi,%rdx
  401ca9:	48 29 f2             	sub    %rsi,%rdx
  401cac:	41 89 e8             	mov    %ebp,%r8d
  401caf:	48 8d 0d 72 29 00 00 	lea    0x2972(%rip),%rcx        # 404628 <_IO_stdin_used+0x628>
  401cb6:	be 02 00 00 00       	mov    $0x2,%esi
  401cbb:	4c 89 e7             	mov    %r12,%rdi
  401cbe:	b8 00 00 00 00       	mov    $0x0,%eax
  401cc3:	e8 58 f5 ff ff       	call   401220 <__sprintf_chk@plt>
  401cc8:	ba 09 00 00 00       	mov    $0x9,%edx
  401ccd:	4c 89 e6             	mov    %r12,%rsi
  401cd0:	48 89 df             	mov    %rbx,%rdi
  401cd3:	e8 88 f3 ff ff       	call   401060 <strncmp@plt>
  401cd8:	85 c0                	test   %eax,%eax
  401cda:	0f 94 c0             	sete   %al
  401cdd:	48 8b 54 24 78       	mov    0x78(%rsp),%rdx
  401ce2:	64 48 2b 14 25 28 00 	sub    %fs:0x28,%rdx
  401ce9:	00 00 
  401ceb:	75 0c                	jne    401cf9 <hexmatch+0xb7>
  401ced:	0f b6 c0             	movzbl %al,%eax
  401cf0:	48 83 ec 80          	sub    $0xffffffffffffff80,%rsp
  401cf4:	5b                   	pop    %rbx
  401cf5:	5d                   	pop    %rbp
  401cf6:	41 5c                	pop    %r12
  401cf8:	c3                   	ret
  401cf9:	e8 b0 08 00 00       	call   4025ae <__stack_chk_fail>

0000000000401cfe <touch3>:
  401cfe:	f3 0f 1e fa          	endbr64
  401d02:	53                   	push   %rbx
  401d03:	48 89 fb             	mov    %rdi,%rbx
  401d06:	c7 05 14 58 00 00 03 	movl   $0x3,0x5814(%rip)        # 407524 <vlevel>
  401d0d:	00 00 00 
  401d10:	48 89 fe             	mov    %rdi,%rsi
  401d13:	8b 3d 13 58 00 00    	mov    0x5813(%rip),%edi        # 40752c <cookie>
  401d19:	e8 24 ff ff ff       	call   401c42 <hexmatch>
  401d1e:	85 c0                	test   %eax,%eax
  401d20:	74 2d                	je     401d4f <touch3+0x51>
  401d22:	48 89 da             	mov    %rbx,%rdx
  401d25:	48 8d 35 7c 24 00 00 	lea    0x247c(%rip),%rsi        # 4041a8 <_IO_stdin_used+0x1a8>
  401d2c:	bf 02 00 00 00       	mov    $0x2,%edi
  401d31:	b8 00 00 00 00       	mov    $0x0,%eax
  401d36:	e8 55 f4 ff ff       	call   401190 <__printf_chk@plt>
  401d3b:	bf 03 00 00 00       	mov    $0x3,%edi
  401d40:	e8 f7 05 00 00       	call   40233c <validate>
  401d45:	bf 00 00 00 00       	mov    $0x0,%edi
  401d4a:	e8 91 f4 ff ff       	call   4011e0 <exit@plt>
  401d4f:	48 89 da             	mov    %rbx,%rdx
  401d52:	48 8d 35 77 24 00 00 	lea    0x2477(%rip),%rsi        # 4041d0 <_IO_stdin_used+0x1d0>
  401d59:	bf 02 00 00 00       	mov    $0x2,%edi
  401d5e:	b8 00 00 00 00       	mov    $0x0,%eax
  401d63:	e8 28 f4 ff ff       	call   401190 <__printf_chk@plt>
  401d68:	bf 03 00 00 00       	mov    $0x3,%edi
  401d6d:	e8 a5 06 00 00       	call   402417 <fail>
  401d72:	eb d1                	jmp    401d45 <touch3+0x47>

0000000000401d74 <test>:
  401d74:	f3 0f 1e fa          	endbr64
  401d78:	48 83 ec 08          	sub    $0x8,%rsp
  401d7c:	b8 00 00 00 00       	mov    $0x0,%eax
  401d81:	e8 04 fe ff ff       	call   401b8a <getbuf>
  401d86:	89 c2                	mov    %eax,%edx
  401d88:	48 8d 35 69 24 00 00 	lea    0x2469(%rip),%rsi        # 4041f8 <_IO_stdin_used+0x1f8>
  401d8f:	bf 02 00 00 00       	mov    $0x2,%edi
  401d94:	b8 00 00 00 00       	mov    $0x0,%eax
  401d99:	e8 f2 f3 ff ff       	call   401190 <__printf_chk@plt>
  401d9e:	48 83 c4 08          	add    $0x8,%rsp
  401da2:	c3                   	ret

0000000000401da3 <test2>:
  401da3:	f3 0f 1e fa          	endbr64
  401da7:	48 83 ec 08          	sub    $0x8,%rsp
  401dab:	b8 00 00 00 00       	mov    $0x0,%eax
  401db0:	e8 1d 00 00 00       	call   401dd2 <getbuf_withcanary>
  401db5:	89 c2                	mov    %eax,%edx
  401db7:	48 8d 35 62 24 00 00 	lea    0x2462(%rip),%rsi        # 404220 <_IO_stdin_used+0x220>
  401dbe:	bf 02 00 00 00       	mov    $0x2,%edi
  401dc3:	b8 00 00 00 00       	mov    $0x0,%eax
  401dc8:	e8 c3 f3 ff ff       	call   401190 <__printf_chk@plt>
  401dcd:	48 83 c4 08          	add    $0x8,%rsp
  401dd1:	c3                   	ret

0000000000401dd2 <getbuf_withcanary>:
  401dd2:	55                   	push   %rbp
  401dd3:	48 89 e5             	mov    %rsp,%rbp
  401dd6:	48 81 ec 20 01 00 00 	sub    $0x120,%rsp
  401ddd:	64 48 8b 04 25 28 00 	mov    %fs:0x28,%rax
  401de4:	00 00 
  401de6:	48 89 45 f8          	mov    %rax,-0x8(%rbp)
  401dea:	31 c0                	xor    %eax,%eax
  401dec:	c7 45 e4 00 00 00 00 	movl   $0x0,-0x1c(%rbp)
  401df3:	48 8d 85 60 ff ff ff 	lea    -0xa0(%rbp),%rax
  401dfa:	48 89 c7             	mov    %rax,%rdi
  401dfd:	e8 bd 02 00 00       	call   4020bf <Gets>
  401e02:	8b 45 e4             	mov    -0x1c(%rbp),%eax
  401e05:	48 98                	cltq
  401e07:	48 8d 95 e0 fe ff ff 	lea    -0x120(%rbp),%rdx
  401e0e:	48 8d 0c 02          	lea    (%rdx,%rax,1),%rcx
  401e12:	48 8d 85 60 ff ff ff 	lea    -0xa0(%rbp),%rax
  401e19:	ba 80 00 00 00       	mov    $0x80,%edx
  401e1e:	48 89 c6             	mov    %rax,%rsi
  401e21:	48 89 cf             	mov    %rcx,%rdi
  401e24:	e8 17 f3 ff ff       	call   401140 <memcpy@plt>
  401e29:	b8 01 00 00 00       	mov    $0x1,%eax
  401e2e:	48 8b 75 f8          	mov    -0x8(%rbp),%rsi
  401e32:	64 48 33 34 25 28 00 	xor    %fs:0x28,%rsi
  401e39:	00 00 
  401e3b:	74 05                	je     401e42 <getbuf_withcanary+0x70>
  401e3d:	e8 6c 07 00 00       	call   4025ae <__stack_chk_fail>
  401e42:	c9                   	leave
  401e43:	c3                   	ret

0000000000401e44 <start_farm>:
  401e44:	f3 0f 1e fa          	endbr64
  401e48:	b8 01 00 00 00       	mov    $0x1,%eax
  401e4d:	c3                   	ret

0000000000401e4e <getval_418>:
  401e4e:	f3 0f 1e fa          	endbr64
  401e52:	b8 48 81 c7 90       	mov    $0x90c78148,%eax
  401e57:	c3                   	ret

0000000000401e58 <setval_431>:
  401e58:	f3 0f 1e fa          	endbr64
  401e5c:	c7 07 58 92 90 90    	movl   $0x90909258,(%rdi)
  401e62:	c3                   	ret

0000000000401e63 <setval_309>:
  401e63:	f3 0f 1e fa          	endbr64
  401e67:	c7 07 88 58 c3 d9    	movl   $0xd9c35888,(%rdi)
  401e6d:	c3                   	ret

0000000000401e6e <getval_498>:
  401e6e:	f3 0f 1e fa          	endbr64
  401e72:	b8 39 78 90 c3       	mov    $0xc3907839,%eax
  401e77:	c3                   	ret

0000000000401e78 <addval_251>:
  401e78:	f3 0f 1e fa          	endbr64
  401e7c:	8d 87 48 89 c7 90    	lea    -0x6f3876b8(%rdi),%eax
  401e82:	c3                   	ret

0000000000401e83 <addval_236>:
  401e83:	f3 0f 1e fa          	endbr64
  401e87:	8d 87 4a 89 c7 c3    	lea    -0x3c3876b6(%rdi),%eax
  401e8d:	c3                   	ret

0000000000401e8e <addval_276>:
  401e8e:	f3 0f 1e fa          	endbr64
  401e92:	8d 87 58 90 90 c3    	lea    -0x3c6f6fa8(%rdi),%eax
  401e98:	c3                   	ret

0000000000401e99 <addval_159>:
  401e99:	f3 0f 1e fa          	endbr64
  401e9d:	8d 87 48 89 c7 c3    	lea    -0x3c3876b8(%rdi),%eax
  401ea3:	c3                   	ret

0000000000401ea4 <mid_farm>:
  401ea4:	f3 0f 1e fa          	endbr64
  401ea8:	b8 01 00 00 00       	mov    $0x1,%eax
  401ead:	c3                   	ret

0000000000401eae <add_xy>:
  401eae:	f3 0f 1e fa          	endbr64
  401eb2:	48 8d 04 37          	lea    (%rdi,%rsi,1),%rax
  401eb6:	c3                   	ret

0000000000401eb7 <addval_176>:
  401eb7:	f3 0f 1e fa          	endbr64
  401ebb:	8d 87 8d d6 08 d2    	lea    -0x2df72973(%rdi),%eax
  401ec1:	c3                   	ret

0000000000401ec2 <setval_331>:
  401ec2:	f3 0f 1e fa          	endbr64
  401ec6:	c7 07 8d c1 84 c0    	movl   $0xc084c18d,(%rdi)
  401ecc:	c3                   	ret

0000000000401ecd <addval_407>:
  401ecd:	f3 0f 1e fa          	endbr64
  401ed1:	8d 87 48 a9 e0 90    	lea    -0x6f1f56b8(%rdi),%eax
  401ed7:	c3                   	ret

0000000000401ed8 <addval_430>:
  401ed8:	f3 0f 1e fa          	endbr64
  401edc:	8d 87 cb 89 c1 c3    	lea    -0x3c3e7635(%rdi),%eax
  401ee2:	c3                   	ret

0000000000401ee3 <getval_486>:
  401ee3:	f3 0f 1e fa          	endbr64
  401ee7:	b8 48 89 e0 c3       	mov    $0xc3e08948,%eax
  401eec:	c3                   	ret

0000000000401eed <getval_219>:
  401eed:	f3 0f 1e fa          	endbr64
  401ef1:	b8 8b d6 84 d2       	mov    $0xd284d68b,%eax
  401ef6:	c3                   	ret

0000000000401ef7 <setval_381>:
  401ef7:	f3 0f 1e fa          	endbr64
  401efb:	c7 07 89 ca 18 d2    	movl   $0xd218ca89,(%rdi)
  401f01:	c3                   	ret

0000000000401f02 <addval_355>:
  401f02:	f3 0f 1e fa          	endbr64
  401f06:	8d 87 89 c1 28 db    	lea    -0x24d73e77(%rdi),%eax
  401f0c:	c3                   	ret

0000000000401f0d <setval_178>:
  401f0d:	f3 0f 1e fa          	endbr64
  401f11:	c7 07 48 89 e0 c1    	movl   $0xc1e08948,(%rdi)
  401f17:	c3                   	ret

0000000000401f18 <getval_402>:
  401f18:	f3 0f 1e fa          	endbr64
  401f1c:	b8 d6 48 89 e0       	mov    $0xe08948d6,%eax
  401f21:	c3                   	ret

0000000000401f22 <setval_291>:
  401f22:	f3 0f 1e fa          	endbr64
  401f26:	c7 07 8b c1 38 c9    	movl   $0xc938c18b,(%rdi)
  401f2c:	c3                   	ret

0000000000401f2d <getval_209>:
  401f2d:	f3 0f 1e fa          	endbr64
  401f31:	b8 89 ca 90 c3       	mov    $0xc390ca89,%eax
  401f36:	c3                   	ret

0000000000401f37 <getval_150>:
  401f37:	f3 0f 1e fa          	endbr64
  401f3b:	b8 89 c1 92 c3       	mov    $0xc392c189,%eax
  401f40:	c3                   	ret

0000000000401f41 <getval_341>:
  401f41:	f3 0f 1e fa          	endbr64
  401f45:	b8 88 c1 84 c9       	mov    $0xc984c188,%eax
  401f4a:	c3                   	ret

0000000000401f4b <setval_120>:
  401f4b:	f3 0f 1e fa          	endbr64
  401f4f:	c7 07 09 d6 84 db    	movl   $0xdb84d609,(%rdi)
  401f55:	c3                   	ret

0000000000401f56 <setval_323>:
  401f56:	f3 0f 1e fa          	endbr64
  401f5a:	c7 07 89 d6 90 c3    	movl   $0xc390d689,(%rdi)
  401f60:	c3                   	ret

0000000000401f61 <addval_246>:
  401f61:	f3 0f 1e fa          	endbr64
  401f65:	8d 87 89 ca 30 c0    	lea    -0x3fcf3577(%rdi),%eax
  401f6b:	c3                   	ret

0000000000401f6c <getval_350>:
  401f6c:	f3 0f 1e fa          	endbr64
  401f70:	b8 8d d6 38 c0       	mov    $0xc038d68d,%eax
  401f75:	c3                   	ret

0000000000401f76 <addval_287>:
  401f76:	f3 0f 1e fa          	endbr64
  401f7a:	8d 87 89 d6 c4 d2    	lea    -0x2d3b2977(%rdi),%eax
  401f80:	c3                   	ret

0000000000401f81 <setval_161>:
  401f81:	f3 0f 1e fa          	endbr64
  401f85:	c7 07 89 ca 30 db    	movl   $0xdb30ca89,(%rdi)
  401f8b:	c3                   	ret

0000000000401f8c <getval_100>:
  401f8c:	f3 0f 1e fa          	endbr64
  401f90:	b8 89 d6 30 db       	mov    $0xdb30d689,%eax
  401f95:	c3                   	ret

0000000000401f96 <getval_280>:
  401f96:	f3 0f 1e fa          	endbr64
  401f9a:	b8 89 ca 18 d2       	mov    $0xd218ca89,%eax
  401f9f:	c3                   	ret

0000000000401fa0 <getval_135>:
  401fa0:	f3 0f 1e fa          	endbr64
  401fa4:	b8 ff 68 89 e0       	mov    $0xe08968ff,%eax
  401fa9:	c3                   	ret

0000000000401faa <setval_111>:
  401faa:	f3 0f 1e fa          	endbr64
  401fae:	c7 07 48 89 e0 c7    	movl   $0xc7e08948,(%rdi)
  401fb4:	c3                   	ret

0000000000401fb5 <setval_312>:
  401fb5:	f3 0f 1e fa          	endbr64
  401fb9:	c7 07 e1 89 c1 91    	movl   $0x91c189e1,(%rdi)
  401fbf:	c3                   	ret

0000000000401fc0 <getval_373>:
  401fc0:	f3 0f 1e fa          	endbr64
  401fc4:	b8 89 ca 48 c9       	mov    $0xc948ca89,%eax
  401fc9:	c3                   	ret

0000000000401fca <addval_289>:
  401fca:	f3 0f 1e fa          	endbr64
  401fce:	8d 87 48 89 e0 91    	lea    -0x6e1f76b8(%rdi),%eax
  401fd4:	c3                   	ret

0000000000401fd5 <getval_330>:
  401fd5:	f3 0f 1e fa          	endbr64
  401fd9:	b8 89 d6 08 c0       	mov    $0xc008d689,%eax
  401fde:	c3                   	ret

0000000000401fdf <getval_363>:
  401fdf:	f3 0f 1e fa          	endbr64
  401fe3:	b8 48 81 e0 c3       	mov    $0xc3e08148,%eax
  401fe8:	c3                   	ret

0000000000401fe9 <addval_446>:
  401fe9:	f3 0f 1e fa          	endbr64
  401fed:	8d 87 81 ca c3 ff    	lea    -0x3c357f(%rdi),%eax
  401ff3:	c3                   	ret

0000000000401ff4 <getval_245>:
  401ff4:	f3 0f 1e fa          	endbr64
  401ff8:	b8 e7 99 89 ca       	mov    $0xca8999e7,%eax
  401ffd:	c3                   	ret

0000000000401ffe <getval_163>:
  401ffe:	f3 0f 1e fa          	endbr64
  402002:	b8 53 89 c1 c3       	mov    $0xc3c18953,%eax
  402007:	c3                   	ret

0000000000402008 <end_farm>:
  402008:	f3 0f 1e fa          	endbr64
  40200c:	b8 01 00 00 00       	mov    $0x1,%eax
  402011:	c3                   	ret

0000000000402012 <save_char>:
  402012:	8b 05 2c 61 00 00    	mov    0x612c(%rip),%eax        # 408144 <gets_cnt>
  402018:	3d ff 03 00 00       	cmp    $0x3ff,%eax
  40201d:	7f 4a                	jg     402069 <save_char+0x57>
  40201f:	89 f9                	mov    %edi,%ecx
  402021:	c0 e9 04             	shr    $0x4,%cl
  402024:	8d 14 40             	lea    (%rax,%rax,2),%edx
  402027:	4c 8d 05 d2 27 00 00 	lea    0x27d2(%rip),%r8        # 404800 <trans_char>
  40202e:	83 e1 0f             	and    $0xf,%ecx
  402031:	45 0f b6 0c 08       	movzbl (%r8,%rcx,1),%r9d
  402036:	48 8d 0d 03 55 00 00 	lea    0x5503(%rip),%rcx        # 407540 <gets_buf>
  40203d:	48 63 f2             	movslq %edx,%rsi
  402040:	44 88 0c 31          	mov    %r9b,(%rcx,%rsi,1)
  402044:	8d 72 01             	lea    0x1(%rdx),%esi
  402047:	83 e7 0f             	and    $0xf,%edi
  40204a:	41 0f b6 3c 38       	movzbl (%r8,%rdi,1),%edi
  40204f:	48 63 f6             	movslq %esi,%rsi
  402052:	40 88 3c 31          	mov    %dil,(%rcx,%rsi,1)
  402056:	83 c2 02             	add    $0x2,%edx
  402059:	48 63 d2             	movslq %edx,%rdx
  40205c:	c6 04 11 20          	movb   $0x20,(%rcx,%rdx,1)
  402060:	83 c0 01             	add    $0x1,%eax
  402063:	89 05 db 60 00 00    	mov    %eax,0x60db(%rip)        # 408144 <gets_cnt>
  402069:	c3                   	ret

000000000040206a <save_term>:
  40206a:	8b 05 d4 60 00 00    	mov    0x60d4(%rip),%eax        # 408144 <gets_cnt>
  402070:	8d 04 40             	lea    (%rax,%rax,2),%eax
  402073:	48 98                	cltq
  402075:	48 8d 15 c4 54 00 00 	lea    0x54c4(%rip),%rdx        # 407540 <gets_buf>
  40207c:	c6 04 02 00          	movb   $0x0,(%rdx,%rax,1)
  402080:	c3                   	ret

0000000000402081 <check_fail>:
  402081:	f3 0f 1e fa          	endbr64
  402085:	50                   	push   %rax
  402086:	58                   	pop    %rax
  402087:	48 83 ec 08          	sub    $0x8,%rsp
  40208b:	0f be 15 b6 60 00 00 	movsbl 0x60b6(%rip),%edx        # 408148 <target_prefix>
  402092:	4c 8d 05 a7 54 00 00 	lea    0x54a7(%rip),%r8        # 407540 <gets_buf>
  402099:	8b 0d 81 54 00 00    	mov    0x5481(%rip),%ecx        # 407520 <check_level>
  40209f:	48 8d 35 87 25 00 00 	lea    0x2587(%rip),%rsi        # 40462d <_IO_stdin_used+0x62d>
  4020a6:	bf 02 00 00 00       	mov    $0x2,%edi
  4020ab:	b8 00 00 00 00       	mov    $0x0,%eax
  4020b0:	e8 db f0 ff ff       	call   401190 <__printf_chk@plt>
  4020b5:	bf 01 00 00 00       	mov    $0x1,%edi
  4020ba:	e8 21 f1 ff ff       	call   4011e0 <exit@plt>

00000000004020bf <Gets>:
  4020bf:	f3 0f 1e fa          	endbr64
  4020c3:	41 54                	push   %r12
  4020c5:	55                   	push   %rbp
  4020c6:	53                   	push   %rbx
  4020c7:	49 89 fc             	mov    %rdi,%r12
  4020ca:	c7 05 70 60 00 00 00 	movl   $0x0,0x6070(%rip)        # 408144 <gets_cnt>
  4020d1:	00 00 00 
  4020d4:	48 89 fb             	mov    %rdi,%rbx
  4020d7:	eb 11                	jmp    4020ea <Gets+0x2b>
  4020d9:	48 8d 6b 01          	lea    0x1(%rbx),%rbp
  4020dd:	88 03                	mov    %al,(%rbx)
  4020df:	0f b6 f8             	movzbl %al,%edi
  4020e2:	e8 2b ff ff ff       	call   402012 <save_char>
  4020e7:	48 89 eb             	mov    %rbp,%rbx
  4020ea:	48 8b 3d 27 54 00 00 	mov    0x5427(%rip),%rdi        # 407518 <infile>
  4020f1:	e8 1a f1 ff ff       	call   401210 <getc@plt>
  4020f6:	83 f8 ff             	cmp    $0xffffffff,%eax
  4020f9:	74 05                	je     402100 <Gets+0x41>
  4020fb:	83 f8 0a             	cmp    $0xa,%eax
  4020fe:	75 d9                	jne    4020d9 <Gets+0x1a>
  402100:	c6 03 00             	movb   $0x0,(%rbx)
  402103:	b8 00 00 00 00       	mov    $0x0,%eax
  402108:	e8 5d ff ff ff       	call   40206a <save_term>
  40210d:	4c 89 e0             	mov    %r12,%rax
  402110:	5b                   	pop    %rbx
  402111:	5d                   	pop    %rbp
  402112:	41 5c                	pop    %r12
  402114:	c3                   	ret

0000000000402115 <notify_server>:
  402115:	f3 0f 1e fa          	endbr64
  402119:	55                   	push   %rbp
  40211a:	53                   	push   %rbx
  40211b:	4c 8d 9c 24 00 c0 ff 	lea    -0x4000(%rsp),%r11
  402122:	ff 
  402123:	48 81 ec 00 10 00 00 	sub    $0x1000,%rsp
  40212a:	48 83 0c 24 00       	orq    $0x0,(%rsp)
  40212f:	4c 39 dc             	cmp    %r11,%rsp
  402132:	75 ef                	jne    402123 <notify_server+0xe>
  402134:	48 83 ec 18          	sub    $0x18,%rsp
  402138:	64 48 8b 04 25 28 00 	mov    %fs:0x28,%rax
  40213f:	00 00 
  402141:	48 89 84 24 08 40 00 	mov    %rax,0x4008(%rsp)
  402148:	00 
  402149:	31 c0                	xor    %eax,%eax
  40214b:	83 3d de 53 00 00 00 	cmpl   $0x0,0x53de(%rip)        # 407530 <is_checker>
  402152:	0f 85 c2 01 00 00    	jne    40231a <notify_server+0x205>
  402158:	89 fb                	mov    %edi,%ebx
  40215a:	81 3d e0 5f 00 00 9c 	cmpl   $0x1f9c,0x5fe0(%rip)        # 408144 <gets_cnt>
  402161:	1f 00 00 
  402164:	0f 8f bd 00 00 00    	jg     402227 <notify_server+0x112>
  40216a:	0f be 05 d7 5f 00 00 	movsbl 0x5fd7(%rip),%eax        # 408148 <target_prefix>
  402171:	83 3d 08 53 00 00 00 	cmpl   $0x0,0x5308(%rip)        # 407480 <notify>
  402178:	0f 84 c4 00 00 00    	je     402242 <notify_server+0x12d>
  40217e:	8b 15 a4 53 00 00    	mov    0x53a4(%rip),%edx        # 407528 <authkey>
  402184:	85 db                	test   %ebx,%ebx
  402186:	0f 84 c0 00 00 00    	je     40224c <notify_server+0x137>
  40218c:	48 8d 2d b0 24 00 00 	lea    0x24b0(%rip),%rbp        # 404643 <_IO_stdin_used+0x643>
  402193:	48 89 e7             	mov    %rsp,%rdi
  402196:	48 8d 0d a3 53 00 00 	lea    0x53a3(%rip),%rcx        # 407540 <gets_buf>
  40219d:	51                   	push   %rcx
  40219e:	56                   	push   %rsi
  40219f:	50                   	push   %rax
  4021a0:	52                   	push   %rdx
  4021a1:	49 89 e9             	mov    %rbp,%r9
  4021a4:	44 8b 05 85 4f 00 00 	mov    0x4f85(%rip),%r8d        # 407130 <target_id>
  4021ab:	48 8d 0d 9b 24 00 00 	lea    0x249b(%rip),%rcx        # 40464d <_IO_stdin_used+0x64d>
  4021b2:	ba 00 20 00 00       	mov    $0x2000,%edx
  4021b7:	be 02 00 00 00       	mov    $0x2,%esi
  4021bc:	b8 00 00 00 00       	mov    $0x0,%eax
  4021c1:	e8 5a f0 ff ff       	call   401220 <__sprintf_chk@plt>
  4021c6:	48 83 c4 20          	add    $0x20,%rsp
  4021ca:	83 3d af 52 00 00 00 	cmpl   $0x0,0x52af(%rip)        # 407480 <notify>
  4021d1:	0f 84 ba 00 00 00    	je     402291 <notify_server+0x17c>
  4021d7:	48 89 e1             	mov    %rsp,%rcx
  4021da:	4c 8d 8c 24 00 20 00 	lea    0x2000(%rsp),%r9
  4021e1:	00 
  4021e2:	41 b8 00 00 00 00    	mov    $0x0,%r8d
  4021e8:	48 8b 15 59 4f 00 00 	mov    0x4f59(%rip),%rdx        # 407148 <lab>
  4021ef:	48 8b 35 5a 4f 00 00 	mov    0x4f5a(%rip),%rsi        # 407150 <course>
  4021f6:	48 8b 3d 43 4f 00 00 	mov    0x4f43(%rip),%rdi        # 407140 <user_id>
  4021fd:	e8 4e 12 00 00       	call   403450 <driver_post>
  402202:	85 c0                	test   %eax,%eax
  402204:	78 52                	js     402258 <notify_server+0x143>
  402206:	85 db                	test   %ebx,%ebx
  402208:	74 76                	je     402280 <notify_server+0x16b>
  40220a:	48 8d 3d 6f 20 00 00 	lea    0x206f(%rip),%rdi        # 404280 <_IO_stdin_used+0x280>
  402211:	e8 6a ee ff ff       	call   401080 <puts@plt>
  402216:	48 8d 3d 58 24 00 00 	lea    0x2458(%rip),%rdi        # 404675 <_IO_stdin_used+0x675>
  40221d:	e8 5e ee ff ff       	call   401080 <puts@plt>
  402222:	e9 f3 00 00 00       	jmp    40231a <notify_server+0x205>
  402227:	48 8d 35 22 20 00 00 	lea    0x2022(%rip),%rsi        # 404250 <_IO_stdin_used+0x250>
  40222e:	bf 02 00 00 00       	mov    $0x2,%edi
  402233:	e8 58 ef ff ff       	call   401190 <__printf_chk@plt>
  402238:	bf 01 00 00 00       	mov    $0x1,%edi
  40223d:	e8 9e ef ff ff       	call   4011e0 <exit@plt>
  402242:	ba ff ff ff ff       	mov    $0xffffffff,%edx
  402247:	e9 38 ff ff ff       	jmp    402184 <notify_server+0x6f>
  40224c:	48 8d 2d f5 23 00 00 	lea    0x23f5(%rip),%rbp        # 404648 <_IO_stdin_used+0x648>
  402253:	e9 3b ff ff ff       	jmp    402193 <notify_server+0x7e>
  402258:	48 8d 94 24 00 20 00 	lea    0x2000(%rsp),%rdx
  40225f:	00 
  402260:	48 8d 35 02 24 00 00 	lea    0x2402(%rip),%rsi        # 404669 <_IO_stdin_used+0x669>
  402267:	bf 02 00 00 00       	mov    $0x2,%edi
  40226c:	b8 00 00 00 00       	mov    $0x0,%eax
  402271:	e8 1a ef ff ff       	call   401190 <__printf_chk@plt>
  402276:	bf 01 00 00 00       	mov    $0x1,%edi
  40227b:	e8 60 ef ff ff       	call   4011e0 <exit@plt>
  402280:	48 8d 3d f8 23 00 00 	lea    0x23f8(%rip),%rdi        # 40467f <_IO_stdin_used+0x67f>
  402287:	e8 f4 ed ff ff       	call   401080 <puts@plt>
  40228c:	e9 89 00 00 00       	jmp    40231a <notify_server+0x205>
  402291:	48 89 ea             	mov    %rbp,%rdx
  402294:	48 8d 35 1d 20 00 00 	lea    0x201d(%rip),%rsi        # 4042b8 <_IO_stdin_used+0x2b8>
  40229b:	bf 02 00 00 00       	mov    $0x2,%edi
  4022a0:	b8 00 00 00 00       	mov    $0x0,%eax
  4022a5:	e8 e6 ee ff ff       	call   401190 <__printf_chk@plt>
  4022aa:	48 8b 15 8f 4e 00 00 	mov    0x4e8f(%rip),%rdx        # 407140 <user_id>
  4022b1:	48 8d 35 ce 23 00 00 	lea    0x23ce(%rip),%rsi        # 404686 <_IO_stdin_used+0x686>
  4022b8:	bf 02 00 00 00       	mov    $0x2,%edi
  4022bd:	b8 00 00 00 00       	mov    $0x0,%eax
  4022c2:	e8 c9 ee ff ff       	call   401190 <__printf_chk@plt>
  4022c7:	48 8b 15 82 4e 00 00 	mov    0x4e82(%rip),%rdx        # 407150 <course>
  4022ce:	48 8d 35 be 23 00 00 	lea    0x23be(%rip),%rsi        # 404693 <_IO_stdin_used+0x693>
  4022d5:	bf 02 00 00 00       	mov    $0x2,%edi
  4022da:	b8 00 00 00 00       	mov    $0x0,%eax
  4022df:	e8 ac ee ff ff       	call   401190 <__printf_chk@plt>
  4022e4:	48 8b 15 5d 4e 00 00 	mov    0x4e5d(%rip),%rdx        # 407148 <lab>
  4022eb:	48 8d 35 ad 23 00 00 	lea    0x23ad(%rip),%rsi        # 40469f <_IO_stdin_used+0x69f>
  4022f2:	bf 02 00 00 00       	mov    $0x2,%edi
  4022f7:	b8 00 00 00 00       	mov    $0x0,%eax
  4022fc:	e8 8f ee ff ff       	call   401190 <__printf_chk@plt>
  402301:	48 89 e2             	mov    %rsp,%rdx
  402304:	48 8d 35 9d 23 00 00 	lea    0x239d(%rip),%rsi        # 4046a8 <_IO_stdin_used+0x6a8>
  40230b:	bf 02 00 00 00       	mov    $0x2,%edi
  402310:	b8 00 00 00 00       	mov    $0x0,%eax
  402315:	e8 76 ee ff ff       	call   401190 <__printf_chk@plt>
  40231a:	48 8b 84 24 08 40 00 	mov    0x4008(%rsp),%rax
  402321:	00 
  402322:	64 48 2b 04 25 28 00 	sub    %fs:0x28,%rax
  402329:	00 00 
  40232b:	75 0a                	jne    402337 <notify_server+0x222>
  40232d:	48 81 c4 18 40 00 00 	add    $0x4018,%rsp
  402334:	5b                   	pop    %rbx
  402335:	5d                   	pop    %rbp
  402336:	c3                   	ret
  402337:	e8 72 02 00 00       	call   4025ae <__stack_chk_fail>

000000000040233c <validate>:
  40233c:	f3 0f 1e fa          	endbr64
  402340:	53                   	push   %rbx
  402341:	89 fb                	mov    %edi,%ebx
  402343:	83 3d e6 51 00 00 00 	cmpl   $0x0,0x51e6(%rip)        # 407530 <is_checker>
  40234a:	74 79                	je     4023c5 <validate+0x89>
  40234c:	39 3d d2 51 00 00    	cmp    %edi,0x51d2(%rip)        # 407524 <vlevel>
  402352:	75 39                	jne    40238d <validate+0x51>
  402354:	8b 15 c6 51 00 00    	mov    0x51c6(%rip),%edx        # 407520 <check_level>
  40235a:	39 fa                	cmp    %edi,%edx
  40235c:	75 45                	jne    4023a3 <validate+0x67>
  40235e:	0f be 0d e3 5d 00 00 	movsbl 0x5de3(%rip),%ecx        # 408148 <target_prefix>
  402365:	4c 8d 0d d4 51 00 00 	lea    0x51d4(%rip),%r9        # 407540 <gets_buf>
  40236c:	41 89 f8             	mov    %edi,%r8d
  40236f:	8b 15 b3 51 00 00    	mov    0x51b3(%rip),%edx        # 407528 <authkey>
  402375:	48 8d 35 8c 1f 00 00 	lea    0x1f8c(%rip),%rsi        # 404308 <_IO_stdin_used+0x308>
  40237c:	bf 02 00 00 00       	mov    $0x2,%edi
  402381:	b8 00 00 00 00       	mov    $0x0,%eax
  402386:	e8 05 ee ff ff       	call   401190 <__printf_chk@plt>
  40238b:	5b                   	pop    %rbx
  40238c:	c3                   	ret
  40238d:	48 8d 3d 20 23 00 00 	lea    0x2320(%rip),%rdi        # 4046b4 <_IO_stdin_used+0x6b4>
  402394:	e8 e7 ec ff ff       	call   401080 <puts@plt>
  402399:	b8 00 00 00 00       	mov    $0x0,%eax
  40239e:	e8 de fc ff ff       	call   402081 <check_fail>
  4023a3:	89 f9                	mov    %edi,%ecx
  4023a5:	48 8d 35 34 1f 00 00 	lea    0x1f34(%rip),%rsi        # 4042e0 <_IO_stdin_used+0x2e0>
  4023ac:	bf 02 00 00 00       	mov    $0x2,%edi
  4023b1:	b8 00 00 00 00       	mov    $0x0,%eax
  4023b6:	e8 d5 ed ff ff       	call   401190 <__printf_chk@plt>
  4023bb:	b8 00 00 00 00       	mov    $0x0,%eax
  4023c0:	e8 bc fc ff ff       	call   402081 <check_fail>
  4023c5:	39 3d 59 51 00 00    	cmp    %edi,0x5159(%rip)        # 407524 <vlevel>
  4023cb:	74 1a                	je     4023e7 <validate+0xab>
  4023cd:	48 8d 3d e0 22 00 00 	lea    0x22e0(%rip),%rdi        # 4046b4 <_IO_stdin_used+0x6b4>
  4023d4:	e8 a7 ec ff ff       	call   401080 <puts@plt>
  4023d9:	89 de                	mov    %ebx,%esi
  4023db:	bf 00 00 00 00       	mov    $0x0,%edi
  4023e0:	e8 30 fd ff ff       	call   402115 <notify_server>
  4023e5:	eb a4                	jmp    40238b <validate+0x4f>
  4023e7:	0f be 0d 5a 5d 00 00 	movsbl 0x5d5a(%rip),%ecx        # 408148 <target_prefix>
  4023ee:	89 fa                	mov    %edi,%edx
  4023f0:	48 8d 35 39 1f 00 00 	lea    0x1f39(%rip),%rsi        # 404330 <_IO_stdin_used+0x330>
  4023f7:	bf 02 00 00 00       	mov    $0x2,%edi
  4023fc:	b8 00 00 00 00       	mov    $0x0,%eax
  402401:	e8 8a ed ff ff       	call   401190 <__printf_chk@plt>
  402406:	89 de                	mov    %ebx,%esi
  402408:	bf 01 00 00 00       	mov    $0x1,%edi
  40240d:	e8 03 fd ff ff       	call   402115 <notify_server>
  402412:	e9 74 ff ff ff       	jmp    40238b <validate+0x4f>

0000000000402417 <fail>:
  402417:	f3 0f 1e fa          	endbr64
  40241b:	48 83 ec 08          	sub    $0x8,%rsp
  40241f:	83 3d 0a 51 00 00 00 	cmpl   $0x0,0x510a(%rip)        # 407530 <is_checker>
  402426:	75 11                	jne    402439 <fail+0x22>
  402428:	89 fe                	mov    %edi,%esi
  40242a:	bf 00 00 00 00       	mov    $0x0,%edi
  40242f:	e8 e1 fc ff ff       	call   402115 <notify_server>
  402434:	48 83 c4 08          	add    $0x8,%rsp
  402438:	c3                   	ret
  402439:	b8 00 00 00 00       	mov    $0x0,%eax
  40243e:	e8 3e fc ff ff       	call   402081 <check_fail>

0000000000402443 <bushandler>:
  402443:	f3 0f 1e fa          	endbr64
  402447:	50                   	push   %rax
  402448:	58                   	pop    %rax
  402449:	48 83 ec 08          	sub    $0x8,%rsp
  40244d:	83 3d dc 50 00 00 00 	cmpl   $0x0,0x50dc(%rip)        # 407530 <is_checker>
  402454:	74 16                	je     40246c <bushandler+0x29>
  402456:	48 8d 3d 75 22 00 00 	lea    0x2275(%rip),%rdi        # 4046d2 <_IO_stdin_used+0x6d2>
  40245d:	e8 1e ec ff ff       	call   401080 <puts@plt>
  402462:	b8 00 00 00 00       	mov    $0x0,%eax
  402467:	e8 15 fc ff ff       	call   402081 <check_fail>
  40246c:	48 8d 3d f5 1e 00 00 	lea    0x1ef5(%rip),%rdi        # 404368 <_IO_stdin_used+0x368>
  402473:	e8 08 ec ff ff       	call   401080 <puts@plt>
  402478:	48 8d 3d 5d 22 00 00 	lea    0x225d(%rip),%rdi        # 4046dc <_IO_stdin_used+0x6dc>
  40247f:	e8 fc eb ff ff       	call   401080 <puts@plt>
  402484:	be 00 00 00 00       	mov    $0x0,%esi
  402489:	bf 00 00 00 00       	mov    $0x0,%edi
  40248e:	e8 82 fc ff ff       	call   402115 <notify_server>
  402493:	bf 01 00 00 00       	mov    $0x1,%edi
  402498:	e8 43 ed ff ff       	call   4011e0 <exit@plt>

000000000040249d <seghandler>:
  40249d:	f3 0f 1e fa          	endbr64
  4024a1:	50                   	push   %rax
  4024a2:	58                   	pop    %rax
  4024a3:	48 83 ec 08          	sub    $0x8,%rsp
  4024a7:	83 3d 82 50 00 00 00 	cmpl   $0x0,0x5082(%rip)        # 407530 <is_checker>
  4024ae:	74 16                	je     4024c6 <seghandler+0x29>
  4024b0:	48 8d 3d 3b 22 00 00 	lea    0x223b(%rip),%rdi        # 4046f2 <_IO_stdin_used+0x6f2>
  4024b7:	e8 c4 eb ff ff       	call   401080 <puts@plt>
  4024bc:	b8 00 00 00 00       	mov    $0x0,%eax
  4024c1:	e8 bb fb ff ff       	call   402081 <check_fail>
  4024c6:	48 8d 3d bb 1e 00 00 	lea    0x1ebb(%rip),%rdi        # 404388 <_IO_stdin_used+0x388>
  4024cd:	e8 ae eb ff ff       	call   401080 <puts@plt>
  4024d2:	48 8d 3d 03 22 00 00 	lea    0x2203(%rip),%rdi        # 4046dc <_IO_stdin_used+0x6dc>
  4024d9:	e8 a2 eb ff ff       	call   401080 <puts@plt>
  4024de:	be 00 00 00 00       	mov    $0x0,%esi
  4024e3:	bf 00 00 00 00       	mov    $0x0,%edi
  4024e8:	e8 28 fc ff ff       	call   402115 <notify_server>
  4024ed:	bf 01 00 00 00       	mov    $0x1,%edi
  4024f2:	e8 e9 ec ff ff       	call   4011e0 <exit@plt>

00000000004024f7 <illegalhandler>:
  4024f7:	f3 0f 1e fa          	endbr64
  4024fb:	50                   	push   %rax
  4024fc:	58                   	pop    %rax
  4024fd:	48 83 ec 08          	sub    $0x8,%rsp
  402501:	83 3d 28 50 00 00 00 	cmpl   $0x0,0x5028(%rip)        # 407530 <is_checker>
  402508:	74 16                	je     402520 <illegalhandler+0x29>
  40250a:	48 8d 3d f4 21 00 00 	lea    0x21f4(%rip),%rdi        # 404705 <_IO_stdin_used+0x705>
  402511:	e8 6a eb ff ff       	call   401080 <puts@plt>
  402516:	b8 00 00 00 00       	mov    $0x0,%eax
  40251b:	e8 61 fb ff ff       	call   402081 <check_fail>
  402520:	48 8d 3d 89 1e 00 00 	lea    0x1e89(%rip),%rdi        # 4043b0 <_IO_stdin_used+0x3b0>
  402527:	e8 54 eb ff ff       	call   401080 <puts@plt>
  40252c:	48 8d 3d a9 21 00 00 	lea    0x21a9(%rip),%rdi        # 4046dc <_IO_stdin_used+0x6dc>
  402533:	e8 48 eb ff ff       	call   401080 <puts@plt>
  402538:	be 00 00 00 00       	mov    $0x0,%esi
  40253d:	bf 00 00 00 00       	mov    $0x0,%edi
  402542:	e8 ce fb ff ff       	call   402115 <notify_server>
  402547:	bf 01 00 00 00       	mov    $0x1,%edi
  40254c:	e8 8f ec ff ff       	call   4011e0 <exit@plt>

0000000000402551 <sigalrmhandler>:
  402551:	f3 0f 1e fa          	endbr64
  402555:	50                   	push   %rax
  402556:	58                   	pop    %rax
  402557:	48 83 ec 08          	sub    $0x8,%rsp
  40255b:	83 3d ce 4f 00 00 00 	cmpl   $0x0,0x4fce(%rip)        # 407530 <is_checker>
  402562:	74 16                	je     40257a <sigalrmhandler+0x29>
  402564:	48 8d 3d ae 21 00 00 	lea    0x21ae(%rip),%rdi        # 404719 <_IO_stdin_used+0x719>
  40256b:	e8 10 eb ff ff       	call   401080 <puts@plt>
  402570:	b8 00 00 00 00       	mov    $0x0,%eax
  402575:	e8 07 fb ff ff       	call   402081 <check_fail>
  40257a:	ba 02 00 00 00       	mov    $0x2,%edx
  40257f:	48 8d 35 5a 1e 00 00 	lea    0x1e5a(%rip),%rsi        # 4043e0 <_IO_stdin_used+0x3e0>
  402586:	bf 02 00 00 00       	mov    $0x2,%edi
  40258b:	b8 00 00 00 00       	mov    $0x0,%eax
  402590:	e8 fb eb ff ff       	call   401190 <__printf_chk@plt>
  402595:	be 00 00 00 00       	mov    $0x0,%esi
  40259a:	bf 00 00 00 00       	mov    $0x0,%edi
  40259f:	e8 71 fb ff ff       	call   402115 <notify_server>
  4025a4:	bf 01 00 00 00       	mov    $0x1,%edi
  4025a9:	e8 32 ec ff ff       	call   4011e0 <exit@plt>

00000000004025ae <__stack_chk_fail>:
  4025ae:	f3 0f 1e fa          	endbr64
  4025b2:	50                   	push   %rax
  4025b3:	58                   	pop    %rax
  4025b4:	48 83 ec 08          	sub    $0x8,%rsp
  4025b8:	83 3d 71 4f 00 00 00 	cmpl   $0x0,0x4f71(%rip)        # 407530 <is_checker>
  4025bf:	74 16                	je     4025d7 <__stack_chk_fail+0x29>
  4025c1:	48 8d 3d 59 21 00 00 	lea    0x2159(%rip),%rdi        # 404721 <_IO_stdin_used+0x721>
  4025c8:	e8 b3 ea ff ff       	call   401080 <puts@plt>
  4025cd:	b8 00 00 00 00       	mov    $0x0,%eax
  4025d2:	e8 aa fa ff ff       	call   402081 <check_fail>
  4025d7:	48 8d 3d 3a 1e 00 00 	lea    0x1e3a(%rip),%rdi        # 404418 <_IO_stdin_used+0x418>
  4025de:	e8 9d ea ff ff       	call   401080 <puts@plt>
  4025e3:	48 8d 3d f2 20 00 00 	lea    0x20f2(%rip),%rdi        # 4046dc <_IO_stdin_used+0x6dc>
  4025ea:	e8 91 ea ff ff       	call   401080 <puts@plt>
  4025ef:	be 00 00 00 00       	mov    $0x0,%esi
  4025f4:	bf 00 00 00 00       	mov    $0x0,%edi
  4025f9:	e8 17 fb ff ff       	call   402115 <notify_server>
  4025fe:	bf 01 00 00 00       	mov    $0x1,%edi
  402603:	e8 d8 eb ff ff       	call   4011e0 <exit@plt>

0000000000402608 <launch>:
  402608:	f3 0f 1e fa          	endbr64
  40260c:	55                   	push   %rbp
  40260d:	48 89 e5             	mov    %rsp,%rbp
  402610:	53                   	push   %rbx
  402611:	48 83 ec 18          	sub    $0x18,%rsp
  402615:	48 89 fa             	mov    %rdi,%rdx
  402618:	89 f3                	mov    %esi,%ebx
  40261a:	64 48 8b 04 25 28 00 	mov    %fs:0x28,%rax
  402621:	00 00 
  402623:	48 89 45 e8          	mov    %rax,-0x18(%rbp)
  402627:	31 c0                	xor    %eax,%eax
  402629:	48 8d 47 17          	lea    0x17(%rdi),%rax
  40262d:	48 89 c6             	mov    %rax,%rsi
  402630:	48 83 e6 f0          	and    $0xfffffffffffffff0,%rsi
  402634:	48 25 00 f0 ff ff    	and    $0xfffffffffffff000,%rax
  40263a:	48 89 e1             	mov    %rsp,%rcx
  40263d:	48 29 c1             	sub    %rax,%rcx
  402640:	48 39 cc             	cmp    %rcx,%rsp
  402643:	74 12                	je     402657 <launch+0x4f>
  402645:	48 81 ec 00 10 00 00 	sub    $0x1000,%rsp
  40264c:	48 83 8c 24 f8 0f 00 	orq    $0x0,0xff8(%rsp)
  402653:	00 00 
  402655:	eb e9                	jmp    402640 <launch+0x38>
  402657:	48 89 f0             	mov    %rsi,%rax
  40265a:	25 ff 0f 00 00       	and    $0xfff,%eax
  40265f:	48 29 c4             	sub    %rax,%rsp
  402662:	48 85 c0             	test   %rax,%rax
  402665:	74 06                	je     40266d <launch+0x65>
  402667:	48 83 4c 04 f8 00    	orq    $0x0,-0x8(%rsp,%rax,1)
  40266d:	48 8d 7c 24 0f       	lea    0xf(%rsp),%rdi
  402672:	48 83 e7 f0          	and    $0xfffffffffffffff0,%rdi
  402676:	48 89 d1             	mov    %rdx,%rcx
  402679:	be f4 00 00 00       	mov    $0xf4,%esi
  40267e:	e8 4d eb ff ff       	call   4011d0 <__memset_chk@plt>
  402683:	48 8b 05 16 4e 00 00 	mov    0x4e16(%rip),%rax        # 4074a0 <stdin@GLIBC_2.2.5>
  40268a:	48 39 05 87 4e 00 00 	cmp    %rax,0x4e87(%rip)        # 407518 <infile>
  402691:	74 42                	je     4026d5 <launch+0xcd>
  402693:	c7 05 87 4e 00 00 00 	movl   $0x0,0x4e87(%rip)        # 407524 <vlevel>
  40269a:	00 00 00 
  40269d:	85 db                	test   %ebx,%ebx
  40269f:	75 4c                	jne    4026ed <launch+0xe5>
  4026a1:	b8 00 00 00 00       	mov    $0x0,%eax
  4026a6:	e8 c9 f6 ff ff       	call   401d74 <test>
  4026ab:	83 3d 7e 4e 00 00 00 	cmpl   $0x0,0x4e7e(%rip)        # 407530 <is_checker>
  4026b2:	75 45                	jne    4026f9 <launch+0xf1>
  4026b4:	48 8d 3d 8d 20 00 00 	lea    0x208d(%rip),%rdi        # 404748 <_IO_stdin_used+0x748>
  4026bb:	e8 c0 e9 ff ff       	call   401080 <puts@plt>
  4026c0:	48 8b 45 e8          	mov    -0x18(%rbp),%rax
  4026c4:	64 48 2b 04 25 28 00 	sub    %fs:0x28,%rax
  4026cb:	00 00 
  4026cd:	75 40                	jne    40270f <launch+0x107>
  4026cf:	48 8b 5d f8          	mov    -0x8(%rbp),%rbx
  4026d3:	c9                   	leave
  4026d4:	c3                   	ret
  4026d5:	48 8d 35 54 20 00 00 	lea    0x2054(%rip),%rsi        # 404730 <_IO_stdin_used+0x730>
  4026dc:	bf 02 00 00 00       	mov    $0x2,%edi
  4026e1:	b8 00 00 00 00       	mov    $0x0,%eax
  4026e6:	e8 a5 ea ff ff       	call   401190 <__printf_chk@plt>
  4026eb:	eb a6                	jmp    402693 <launch+0x8b>
  4026ed:	b8 00 00 00 00       	mov    $0x0,%eax
  4026f2:	e8 ac f6 ff ff       	call   401da3 <test2>
  4026f7:	eb b2                	jmp    4026ab <launch+0xa3>
  4026f9:	48 8d 3d 3d 20 00 00 	lea    0x203d(%rip),%rdi        # 40473d <_IO_stdin_used+0x73d>
  402700:	e8 7b e9 ff ff       	call   401080 <puts@plt>
  402705:	b8 00 00 00 00       	mov    $0x0,%eax
  40270a:	e8 72 f9 ff ff       	call   402081 <check_fail>
  40270f:	e8 9a fe ff ff       	call   4025ae <__stack_chk_fail>

0000000000402714 <stable_launch>:
  402714:	f3 0f 1e fa          	endbr64
  402718:	55                   	push   %rbp
  402719:	53                   	push   %rbx
  40271a:	48 83 ec 08          	sub    $0x8,%rsp
  40271e:	89 f5                	mov    %esi,%ebp
  402720:	48 89 3d e9 4d 00 00 	mov    %rdi,0x4de9(%rip)        # 407510 <global_offset>
  402727:	41 b9 00 00 00 00    	mov    $0x0,%r9d
  40272d:	41 b8 00 00 00 00    	mov    $0x0,%r8d
  402733:	b9 32 01 00 00       	mov    $0x132,%ecx
  402738:	ba 07 00 00 00       	mov    $0x7,%edx
  40273d:	be 00 00 10 00       	mov    $0x100000,%esi
  402742:	bf 00 60 58 55       	mov    $0x55586000,%edi
  402747:	e8 64 e9 ff ff       	call   4010b0 <mmap@plt>
  40274c:	48 89 c3             	mov    %rax,%rbx
  40274f:	48 3d 00 60 58 55    	cmp    $0x55586000,%rax
  402755:	75 4a                	jne    4027a1 <stable_launch+0x8d>
  402757:	48 8d 90 f8 ff 0f 00 	lea    0xffff8(%rax),%rdx
  40275e:	48 89 15 a3 4d 00 00 	mov    %rdx,0x4da3(%rip)        # 407508 <stack_top>
  402765:	48 89 e0             	mov    %rsp,%rax
  402768:	48 89 d4             	mov    %rdx,%rsp
  40276b:	48 89 c2             	mov    %rax,%rdx
  40276e:	48 89 15 8b 4d 00 00 	mov    %rdx,0x4d8b(%rip)        # 407500 <global_save_stack>
  402775:	89 ee                	mov    %ebp,%esi
  402777:	48 8b 3d 92 4d 00 00 	mov    0x4d92(%rip),%rdi        # 407510 <global_offset>
  40277e:	e8 85 fe ff ff       	call   402608 <launch>
  402783:	48 8b 05 76 4d 00 00 	mov    0x4d76(%rip),%rax        # 407500 <global_save_stack>
  40278a:	48 89 c4             	mov    %rax,%rsp
  40278d:	be 00 00 10 00       	mov    $0x100000,%esi
  402792:	48 89 df             	mov    %rbx,%rdi
  402795:	e8 e6 e9 ff ff       	call   401180 <munmap@plt>
  40279a:	48 83 c4 08          	add    $0x8,%rsp
  40279e:	5b                   	pop    %rbx
  40279f:	5d                   	pop    %rbp
  4027a0:	c3                   	ret
  4027a1:	be 00 00 10 00       	mov    $0x100000,%esi
  4027a6:	48 89 c7             	mov    %rax,%rdi
  4027a9:	e8 d2 e9 ff ff       	call   401180 <munmap@plt>
  4027ae:	b9 00 60 58 55       	mov    $0x55586000,%ecx
  4027b3:	48 8d 15 86 1c 00 00 	lea    0x1c86(%rip),%rdx        # 404440 <_IO_stdin_used+0x440>
  4027ba:	be 02 00 00 00       	mov    $0x2,%esi
  4027bf:	48 8b 3d 1a 4d 00 00 	mov    0x4d1a(%rip),%rdi        # 4074e0 <stderr@GLIBC_2.2.5>
  4027c6:	b8 00 00 00 00       	mov    $0x0,%eax
  4027cb:	e8 30 ea ff ff       	call   401200 <__fprintf_chk@plt>
  4027d0:	bf 01 00 00 00       	mov    $0x1,%edi
  4027d5:	e8 06 ea ff ff       	call   4011e0 <exit@plt>

00000000004027da <rio_readinitb>:
  4027da:	89 37                	mov    %esi,(%rdi)
  4027dc:	c7 47 04 00 00 00 00 	movl   $0x0,0x4(%rdi)
  4027e3:	48 8d 47 10          	lea    0x10(%rdi),%rax
  4027e7:	48 89 47 08          	mov    %rax,0x8(%rdi)
  4027eb:	c3                   	ret

00000000004027ec <sigalrm_handler>:
  4027ec:	f3 0f 1e fa          	endbr64
  4027f0:	50                   	push   %rax
  4027f1:	58                   	pop    %rax
  4027f2:	48 83 ec 08          	sub    $0x8,%rsp
  4027f6:	b9 00 00 00 00       	mov    $0x0,%ecx
  4027fb:	48 8d 15 66 1c 00 00 	lea    0x1c66(%rip),%rdx        # 404468 <_IO_stdin_used+0x468>
  402802:	be 02 00 00 00       	mov    $0x2,%esi
  402807:	48 8b 3d d2 4c 00 00 	mov    0x4cd2(%rip),%rdi        # 4074e0 <stderr@GLIBC_2.2.5>
  40280e:	b8 00 00 00 00       	mov    $0x0,%eax
  402813:	e8 e8 e9 ff ff       	call   401200 <__fprintf_chk@plt>
  402818:	bf 01 00 00 00       	mov    $0x1,%edi
  40281d:	e8 be e9 ff ff       	call   4011e0 <exit@plt>

0000000000402822 <rio_writen>:
  402822:	41 55                	push   %r13
  402824:	41 54                	push   %r12
  402826:	55                   	push   %rbp
  402827:	53                   	push   %rbx
  402828:	48 83 ec 08          	sub    $0x8,%rsp
  40282c:	41 89 fc             	mov    %edi,%r12d
  40282f:	48 89 f5             	mov    %rsi,%rbp
  402832:	49 89 d5             	mov    %rdx,%r13
  402835:	48 89 d3             	mov    %rdx,%rbx
  402838:	eb 06                	jmp    402840 <rio_writen+0x1e>
  40283a:	48 29 c3             	sub    %rax,%rbx
  40283d:	48 01 c5             	add    %rax,%rbp
  402840:	48 85 db             	test   %rbx,%rbx
  402843:	74 24                	je     402869 <rio_writen+0x47>
  402845:	48 89 da             	mov    %rbx,%rdx
  402848:	48 89 ee             	mov    %rbp,%rsi
  40284b:	44 89 e7             	mov    %r12d,%edi
  40284e:	e8 3d e8 ff ff       	call   401090 <write@plt>
  402853:	48 85 c0             	test   %rax,%rax
  402856:	7f e2                	jg     40283a <rio_writen+0x18>
  402858:	e8 d3 e7 ff ff       	call   401030 <__errno_location@plt>
  40285d:	83 38 04             	cmpl   $0x4,(%rax)
  402860:	75 15                	jne    402877 <rio_writen+0x55>
  402862:	b8 00 00 00 00       	mov    $0x0,%eax
  402867:	eb d1                	jmp    40283a <rio_writen+0x18>
  402869:	4c 89 e8             	mov    %r13,%rax
  40286c:	48 83 c4 08          	add    $0x8,%rsp
  402870:	5b                   	pop    %rbx
  402871:	5d                   	pop    %rbp
  402872:	41 5c                	pop    %r12
  402874:	41 5d                	pop    %r13
  402876:	c3                   	ret
  402877:	48 c7 c0 ff ff ff ff 	mov    $0xffffffffffffffff,%rax
  40287e:	eb ec                	jmp    40286c <rio_writen+0x4a>

0000000000402880 <rio_read>:
  402880:	41 55                	push   %r13
  402882:	41 54                	push   %r12
  402884:	55                   	push   %rbp
  402885:	53                   	push   %rbx
  402886:	48 83 ec 08          	sub    $0x8,%rsp
  40288a:	48 89 fb             	mov    %rdi,%rbx
  40288d:	49 89 f5             	mov    %rsi,%r13
  402890:	49 89 d4             	mov    %rdx,%r12
  402893:	eb 0a                	jmp    40289f <rio_read+0x1f>
  402895:	e8 96 e7 ff ff       	call   401030 <__errno_location@plt>
  40289a:	83 38 04             	cmpl   $0x4,(%rax)
  40289d:	75 5f                	jne    4028fe <rio_read+0x7e>
  40289f:	8b 6b 04             	mov    0x4(%rbx),%ebp
  4028a2:	85 ed                	test   %ebp,%ebp
  4028a4:	7f 22                	jg     4028c8 <rio_read+0x48>
  4028a6:	48 8d 6b 10          	lea    0x10(%rbx),%rbp
  4028aa:	8b 3b                	mov    (%rbx),%edi
  4028ac:	ba 00 20 00 00       	mov    $0x2000,%edx
  4028b1:	48 89 ee             	mov    %rbp,%rsi
  4028b4:	e8 27 e8 ff ff       	call   4010e0 <read@plt>
  4028b9:	89 43 04             	mov    %eax,0x4(%rbx)
  4028bc:	85 c0                	test   %eax,%eax
  4028be:	78 d5                	js     402895 <rio_read+0x15>
  4028c0:	74 45                	je     402907 <rio_read+0x87>
  4028c2:	48 89 6b 08          	mov    %rbp,0x8(%rbx)
  4028c6:	eb d7                	jmp    40289f <rio_read+0x1f>
  4028c8:	89 e8                	mov    %ebp,%eax
  4028ca:	4c 39 e0             	cmp    %r12,%rax
  4028cd:	72 03                	jb     4028d2 <rio_read+0x52>
  4028cf:	44 89 e5             	mov    %r12d,%ebp
  4028d2:	4c 63 e5             	movslq %ebp,%r12
  4028d5:	48 8b 73 08          	mov    0x8(%rbx),%rsi
  4028d9:	4c 89 e2             	mov    %r12,%rdx
  4028dc:	4c 89 ef             	mov    %r13,%rdi
  4028df:	e8 5c e8 ff ff       	call   401140 <memcpy@plt>
  4028e4:	4c 01 63 08          	add    %r12,0x8(%rbx)
  4028e8:	8b 43 04             	mov    0x4(%rbx),%eax
  4028eb:	29 e8                	sub    %ebp,%eax
  4028ed:	89 43 04             	mov    %eax,0x4(%rbx)
  4028f0:	4c 89 e0             	mov    %r12,%rax
  4028f3:	48 83 c4 08          	add    $0x8,%rsp
  4028f7:	5b                   	pop    %rbx
  4028f8:	5d                   	pop    %rbp
  4028f9:	41 5c                	pop    %r12
  4028fb:	41 5d                	pop    %r13
  4028fd:	c3                   	ret
  4028fe:	48 c7 c0 ff ff ff ff 	mov    $0xffffffffffffffff,%rax
  402905:	eb ec                	jmp    4028f3 <rio_read+0x73>
  402907:	b8 00 00 00 00       	mov    $0x0,%eax
  40290c:	eb e5                	jmp    4028f3 <rio_read+0x73>

000000000040290e <rio_readlineb>:
  40290e:	41 55                	push   %r13
  402910:	41 54                	push   %r12
  402912:	55                   	push   %rbp
  402913:	53                   	push   %rbx
  402914:	48 83 ec 18          	sub    $0x18,%rsp
  402918:	49 89 fd             	mov    %rdi,%r13
  40291b:	48 89 f5             	mov    %rsi,%rbp
  40291e:	49 89 d4             	mov    %rdx,%r12
  402921:	64 48 8b 04 25 28 00 	mov    %fs:0x28,%rax
  402928:	00 00 
  40292a:	48 89 44 24 08       	mov    %rax,0x8(%rsp)
  40292f:	31 c0                	xor    %eax,%eax
  402931:	bb 01 00 00 00       	mov    $0x1,%ebx
  402936:	eb 18                	jmp    402950 <rio_readlineb+0x42>
  402938:	85 c0                	test   %eax,%eax
  40293a:	75 65                	jne    4029a1 <rio_readlineb+0x93>
  40293c:	48 83 fb 01          	cmp    $0x1,%rbx
  402940:	75 3d                	jne    40297f <rio_readlineb+0x71>
  402942:	b8 00 00 00 00       	mov    $0x0,%eax
  402947:	eb 3d                	jmp    402986 <rio_readlineb+0x78>
  402949:	48 83 c3 01          	add    $0x1,%rbx
  40294d:	48 89 d5             	mov    %rdx,%rbp
  402950:	4c 39 e3             	cmp    %r12,%rbx
  402953:	73 2a                	jae    40297f <rio_readlineb+0x71>
  402955:	48 8d 74 24 07       	lea    0x7(%rsp),%rsi
  40295a:	ba 01 00 00 00       	mov    $0x1,%edx
  40295f:	4c 89 ef             	mov    %r13,%rdi
  402962:	e8 19 ff ff ff       	call   402880 <rio_read>
  402967:	83 f8 01             	cmp    $0x1,%eax
  40296a:	75 cc                	jne    402938 <rio_readlineb+0x2a>
  40296c:	48 8d 55 01          	lea    0x1(%rbp),%rdx
  402970:	0f b6 44 24 07       	movzbl 0x7(%rsp),%eax
  402975:	88 45 00             	mov    %al,0x0(%rbp)
  402978:	3c 0a                	cmp    $0xa,%al
  40297a:	75 cd                	jne    402949 <rio_readlineb+0x3b>
  40297c:	48 89 d5             	mov    %rdx,%rbp
  40297f:	c6 45 00 00          	movb   $0x0,0x0(%rbp)
  402983:	48 89 d8             	mov    %rbx,%rax
  402986:	48 8b 54 24 08       	mov    0x8(%rsp),%rdx
  40298b:	64 48 2b 14 25 28 00 	sub    %fs:0x28,%rdx
  402992:	00 00 
  402994:	75 14                	jne    4029aa <rio_readlineb+0x9c>
  402996:	48 83 c4 18          	add    $0x18,%rsp
  40299a:	5b                   	pop    %rbx
  40299b:	5d                   	pop    %rbp
  40299c:	41 5c                	pop    %r12
  40299e:	41 5d                	pop    %r13
  4029a0:	c3                   	ret
  4029a1:	48 c7 c0 ff ff ff ff 	mov    $0xffffffffffffffff,%rax
  4029a8:	eb dc                	jmp    402986 <rio_readlineb+0x78>
  4029aa:	e8 ff fb ff ff       	call   4025ae <__stack_chk_fail>

00000000004029af <urlencode>:
  4029af:	41 54                	push   %r12
  4029b1:	55                   	push   %rbp
  4029b2:	53                   	push   %rbx
  4029b3:	48 83 ec 10          	sub    $0x10,%rsp
  4029b7:	48 89 fb             	mov    %rdi,%rbx
  4029ba:	48 89 f5             	mov    %rsi,%rbp
  4029bd:	64 48 8b 04 25 28 00 	mov    %fs:0x28,%rax
  4029c4:	00 00 
  4029c6:	48 89 44 24 08       	mov    %rax,0x8(%rsp)
  4029cb:	31 c0                	xor    %eax,%eax
  4029cd:	e8 ce e6 ff ff       	call   4010a0 <strlen@plt>
  4029d2:	eb 0f                	jmp    4029e3 <urlencode+0x34>
  4029d4:	44 88 45 00          	mov    %r8b,0x0(%rbp)
  4029d8:	48 8d 6d 01          	lea    0x1(%rbp),%rbp
  4029dc:	48 83 c3 01          	add    $0x1,%rbx
  4029e0:	44 89 e0             	mov    %r12d,%eax
  4029e3:	44 8d 60 ff          	lea    -0x1(%rax),%r12d
  4029e7:	85 c0                	test   %eax,%eax
  4029e9:	0f 84 a8 00 00 00    	je     402a97 <urlencode+0xe8>
  4029ef:	44 0f b6 03          	movzbl (%rbx),%r8d
  4029f3:	41 80 f8 2a          	cmp    $0x2a,%r8b
  4029f7:	0f 94 c0             	sete   %al
  4029fa:	41 80 f8 2d          	cmp    $0x2d,%r8b
  4029fe:	0f 94 c2             	sete   %dl
  402a01:	08 d0                	or     %dl,%al
  402a03:	75 cf                	jne    4029d4 <urlencode+0x25>
  402a05:	41 80 f8 2e          	cmp    $0x2e,%r8b
  402a09:	74 c9                	je     4029d4 <urlencode+0x25>
  402a0b:	41 80 f8 5f          	cmp    $0x5f,%r8b
  402a0f:	74 c3                	je     4029d4 <urlencode+0x25>
  402a11:	41 8d 40 d0          	lea    -0x30(%r8),%eax
  402a15:	3c 09                	cmp    $0x9,%al
  402a17:	76 bb                	jbe    4029d4 <urlencode+0x25>
  402a19:	41 8d 40 bf          	lea    -0x41(%r8),%eax
  402a1d:	3c 19                	cmp    $0x19,%al
  402a1f:	76 b3                	jbe    4029d4 <urlencode+0x25>
  402a21:	41 8d 40 9f          	lea    -0x61(%r8),%eax
  402a25:	3c 19                	cmp    $0x19,%al
  402a27:	76 ab                	jbe    4029d4 <urlencode+0x25>
  402a29:	41 80 f8 20          	cmp    $0x20,%r8b
  402a2d:	74 56                	je     402a85 <urlencode+0xd6>
  402a2f:	41 8d 40 e0          	lea    -0x20(%r8),%eax
  402a33:	3c 5f                	cmp    $0x5f,%al
  402a35:	0f 96 c0             	setbe  %al
  402a38:	41 80 f8 09          	cmp    $0x9,%r8b
  402a3c:	0f 94 c2             	sete   %dl
  402a3f:	08 d0                	or     %dl,%al
  402a41:	74 4f                	je     402a92 <urlencode+0xe3>
  402a43:	48 89 e7             	mov    %rsp,%rdi
  402a46:	45 0f b6 c0          	movzbl %r8b,%r8d
  402a4a:	48 8d 0d 05 1d 00 00 	lea    0x1d05(%rip),%rcx        # 404756 <_IO_stdin_used+0x756>
  402a51:	ba 08 00 00 00       	mov    $0x8,%edx
  402a56:	be 02 00 00 00       	mov    $0x2,%esi
  402a5b:	b8 00 00 00 00       	mov    $0x0,%eax
  402a60:	e8 bb e7 ff ff       	call   401220 <__sprintf_chk@plt>
  402a65:	0f b6 04 24          	movzbl (%rsp),%eax
  402a69:	88 45 00             	mov    %al,0x0(%rbp)
  402a6c:	0f b6 44 24 01       	movzbl 0x1(%rsp),%eax
  402a71:	88 45 01             	mov    %al,0x1(%rbp)
  402a74:	0f b6 44 24 02       	movzbl 0x2(%rsp),%eax
  402a79:	88 45 02             	mov    %al,0x2(%rbp)
  402a7c:	48 8d 6d 03          	lea    0x3(%rbp),%rbp
  402a80:	e9 57 ff ff ff       	jmp    4029dc <urlencode+0x2d>
  402a85:	c6 45 00 2b          	movb   $0x2b,0x0(%rbp)
  402a89:	48 8d 6d 01          	lea    0x1(%rbp),%rbp
  402a8d:	e9 4a ff ff ff       	jmp    4029dc <urlencode+0x2d>
  402a92:	b8 ff ff ff ff       	mov    $0xffffffff,%eax
  402a97:	48 8b 54 24 08       	mov    0x8(%rsp),%rdx
  402a9c:	64 48 2b 14 25 28 00 	sub    %fs:0x28,%rdx
  402aa3:	00 00 
  402aa5:	75 09                	jne    402ab0 <urlencode+0x101>
  402aa7:	48 83 c4 10          	add    $0x10,%rsp
  402aab:	5b                   	pop    %rbx
  402aac:	5d                   	pop    %rbp
  402aad:	41 5c                	pop    %r12
  402aaf:	c3                   	ret
  402ab0:	e8 f9 fa ff ff       	call   4025ae <__stack_chk_fail>

0000000000402ab5 <submitr>:
  402ab5:	f3 0f 1e fa          	endbr64
  402ab9:	41 57                	push   %r15
  402abb:	41 56                	push   %r14
  402abd:	41 55                	push   %r13
  402abf:	41 54                	push   %r12
  402ac1:	55                   	push   %rbp
  402ac2:	53                   	push   %rbx
  402ac3:	4c 8d 9c 24 00 60 ff 	lea    -0xa000(%rsp),%r11
  402aca:	ff 
  402acb:	48 81 ec 00 10 00 00 	sub    $0x1000,%rsp
  402ad2:	48 83 0c 24 00       	orq    $0x0,(%rsp)
  402ad7:	4c 39 dc             	cmp    %r11,%rsp
  402ada:	75 ef                	jne    402acb <submitr+0x16>
  402adc:	48 83 ec 68          	sub    $0x68,%rsp
  402ae0:	49 89 fd             	mov    %rdi,%r13
  402ae3:	41 89 f6             	mov    %esi,%r14d
  402ae6:	48 89 54 24 10       	mov    %rdx,0x10(%rsp)
  402aeb:	49 89 cc             	mov    %rcx,%r12
  402aee:	4c 89 44 24 18       	mov    %r8,0x18(%rsp)
  402af3:	4c 89 4c 24 08       	mov    %r9,0x8(%rsp)
  402af8:	4c 8b bc 24 a0 a0 00 	mov    0xa0a0(%rsp),%r15
  402aff:	00 
  402b00:	64 48 8b 04 25 28 00 	mov    %fs:0x28,%rax
  402b07:	00 00 
  402b09:	48 89 84 24 58 a0 00 	mov    %rax,0xa058(%rsp)
  402b10:	00 
  402b11:	31 c0                	xor    %eax,%eax
  402b13:	c7 44 24 2c 00 00 00 	movl   $0x0,0x2c(%rsp)
  402b1a:	00 
  402b1b:	ba 00 00 00 00       	mov    $0x0,%edx
  402b20:	be 01 00 00 00       	mov    $0x1,%esi
  402b25:	bf 02 00 00 00       	mov    $0x2,%edi
  402b2a:	e8 01 e7 ff ff       	call   401230 <socket@plt>
  402b2f:	85 c0                	test   %eax,%eax
  402b31:	0f 88 72 02 00 00    	js     402da9 <submitr+0x2f4>
  402b37:	89 c3                	mov    %eax,%ebx
  402b39:	4c 89 ef             	mov    %r13,%rdi
  402b3c:	e8 cf e5 ff ff       	call   401110 <gethostbyname@plt>
  402b41:	48 85 c0             	test   %rax,%rax
  402b44:	0f 84 ab 02 00 00    	je     402df5 <submitr+0x340>
  402b4a:	48 8d 6c 24 30       	lea    0x30(%rsp),%rbp
  402b4f:	66 0f ef c0          	pxor   %xmm0,%xmm0
  402b53:	0f 29 44 24 30       	movaps %xmm0,0x30(%rsp)
  402b58:	66 c7 44 24 30 02 00 	movw   $0x2,0x30(%rsp)
  402b5f:	48 63 50 14          	movslq 0x14(%rax),%rdx
  402b63:	48 8b 40 18          	mov    0x18(%rax),%rax
  402b67:	48 8b 30             	mov    (%rax),%rsi
  402b6a:	48 8d 7c 24 34       	lea    0x34(%rsp),%rdi
  402b6f:	b9 0c 00 00 00       	mov    $0xc,%ecx
  402b74:	e8 a7 e5 ff ff       	call   401120 <__memmove_chk@plt>
  402b79:	66 41 c1 c6 08       	rol    $0x8,%r14w
  402b7e:	66 44 89 74 24 32    	mov    %r14w,0x32(%rsp)
  402b84:	ba 10 00 00 00       	mov    $0x10,%edx
  402b89:	48 89 ee             	mov    %rbp,%rsi
  402b8c:	89 df                	mov    %ebx,%edi
  402b8e:	e8 5d e6 ff ff       	call   4011f0 <connect@plt>
  402b93:	85 c0                	test   %eax,%eax
  402b95:	0f 88 cc 02 00 00    	js     402e67 <submitr+0x3b2>
  402b9b:	48 8b 7c 24 08       	mov    0x8(%rsp),%rdi
  402ba0:	e8 fb e4 ff ff       	call   4010a0 <strlen@plt>
  402ba5:	49 89 c6             	mov    %rax,%r14
  402ba8:	48 8b 7c 24 10       	mov    0x10(%rsp),%rdi
  402bad:	e8 ee e4 ff ff       	call   4010a0 <strlen@plt>
  402bb2:	48 89 c5             	mov    %rax,%rbp
  402bb5:	4c 89 e7             	mov    %r12,%rdi
  402bb8:	e8 e3 e4 ff ff       	call   4010a0 <strlen@plt>
  402bbd:	48 01 c5             	add    %rax,%rbp
  402bc0:	48 8b 7c 24 18       	mov    0x18(%rsp),%rdi
  402bc5:	e8 d6 e4 ff ff       	call   4010a0 <strlen@plt>
  402bca:	48 01 c5             	add    %rax,%rbp
  402bcd:	4b 8d 04 76          	lea    (%r14,%r14,2),%rax
  402bd1:	48 8d 84 05 80 00 00 	lea    0x80(%rbp,%rax,1),%rax
  402bd8:	00 
  402bd9:	48 3d 00 20 00 00    	cmp    $0x2000,%rax
  402bdf:	0f 87 e6 02 00 00    	ja     402ecb <submitr+0x416>
  402be5:	48 8d b4 24 50 40 00 	lea    0x4050(%rsp),%rsi
  402bec:	00 
  402bed:	b9 00 04 00 00       	mov    $0x400,%ecx
  402bf2:	b8 00 00 00 00       	mov    $0x0,%eax
  402bf7:	48 89 f7             	mov    %rsi,%rdi
  402bfa:	f3 48 ab             	rep stos %rax,%es:(%rdi)
  402bfd:	48 8b 7c 24 08       	mov    0x8(%rsp),%rdi
  402c02:	e8 a8 fd ff ff       	call   4029af <urlencode>
  402c07:	85 c0                	test   %eax,%eax
  402c09:	0f 88 2e 03 00 00    	js     402f3d <submitr+0x488>
  402c0f:	48 8d ac 24 50 20 00 	lea    0x2050(%rsp),%rbp
  402c16:	00 
  402c17:	48 83 ec 08          	sub    $0x8,%rsp
  402c1b:	41 55                	push   %r13
  402c1d:	48 8d 84 24 60 40 00 	lea    0x4060(%rsp),%rax
  402c24:	00 
  402c25:	50                   	push   %rax
  402c26:	41 54                	push   %r12
  402c28:	4c 8b 4c 24 38       	mov    0x38(%rsp),%r9
  402c2d:	4c 8b 44 24 30       	mov    0x30(%rsp),%r8
  402c32:	48 8d 0d 57 18 00 00 	lea    0x1857(%rip),%rcx        # 404490 <_IO_stdin_used+0x490>
  402c39:	ba 00 20 00 00       	mov    $0x2000,%edx
  402c3e:	be 02 00 00 00       	mov    $0x2,%esi
  402c43:	48 89 ef             	mov    %rbp,%rdi
  402c46:	b8 00 00 00 00       	mov    $0x0,%eax
  402c4b:	e8 d0 e5 ff ff       	call   401220 <__sprintf_chk@plt>
  402c50:	48 83 c4 20          	add    $0x20,%rsp
  402c54:	48 89 ef             	mov    %rbp,%rdi
  402c57:	e8 44 e4 ff ff       	call   4010a0 <strlen@plt>
  402c5c:	48 89 c2             	mov    %rax,%rdx
  402c5f:	48 89 ee             	mov    %rbp,%rsi
  402c62:	89 df                	mov    %ebx,%edi
  402c64:	e8 b9 fb ff ff       	call   402822 <rio_writen>
  402c69:	48 85 c0             	test   %rax,%rax
  402c6c:	0f 88 53 03 00 00    	js     402fc5 <submitr+0x510>
  402c72:	48 8d 6c 24 40       	lea    0x40(%rsp),%rbp
  402c77:	89 de                	mov    %ebx,%esi
  402c79:	48 89 ef             	mov    %rbp,%rdi
  402c7c:	e8 59 fb ff ff       	call   4027da <rio_readinitb>
  402c81:	48 8d b4 24 50 20 00 	lea    0x2050(%rsp),%rsi
  402c88:	00 
  402c89:	ba 00 20 00 00       	mov    $0x2000,%edx
  402c8e:	48 89 ef             	mov    %rbp,%rdi
  402c91:	e8 78 fc ff ff       	call   40290e <rio_readlineb>
  402c96:	48 85 c0             	test   %rax,%rax
  402c99:	0f 8e 92 03 00 00    	jle    403031 <submitr+0x57c>
  402c9f:	48 8d 4c 24 2c       	lea    0x2c(%rsp),%rcx
  402ca4:	48 8d 94 24 50 60 00 	lea    0x6050(%rsp),%rdx
  402cab:	00 
  402cac:	48 8d bc 24 50 20 00 	lea    0x2050(%rsp),%rdi
  402cb3:	00 
  402cb4:	4c 8d 84 24 50 80 00 	lea    0x8050(%rsp),%r8
  402cbb:	00 
  402cbc:	48 8d 35 9a 1a 00 00 	lea    0x1a9a(%rip),%rsi        # 40475d <_IO_stdin_used+0x75d>
  402cc3:	b8 00 00 00 00       	mov    $0x0,%eax
  402cc8:	e8 a3 e4 ff ff       	call   401170 <__isoc99_sscanf@plt>
  402ccd:	48 8d bc 24 50 20 00 	lea    0x2050(%rsp),%rdi
  402cd4:	00 
  402cd5:	48 8d 35 98 1a 00 00 	lea    0x1a98(%rip),%rsi        # 404774 <_IO_stdin_used+0x774>
  402cdc:	e8 0f e4 ff ff       	call   4010f0 <strcmp@plt>
  402ce1:	85 c0                	test   %eax,%eax
  402ce3:	0f 84 c8 03 00 00    	je     4030b1 <submitr+0x5fc>
  402ce9:	48 8d b4 24 50 20 00 	lea    0x2050(%rsp),%rsi
  402cf0:	00 
  402cf1:	48 8d 7c 24 40       	lea    0x40(%rsp),%rdi
  402cf6:	ba 00 20 00 00       	mov    $0x2000,%edx
  402cfb:	e8 0e fc ff ff       	call   40290e <rio_readlineb>
  402d00:	48 85 c0             	test   %rax,%rax
  402d03:	7f c8                	jg     402ccd <submitr+0x218>
  402d05:	48 b8 45 72 72 6f 72 	movabs $0x43203a726f727245,%rax
  402d0c:	3a 20 43 
  402d0f:	48 ba 6c 69 65 6e 74 	movabs $0x6e7520746e65696c,%rdx
  402d16:	20 75 6e 
  402d19:	49 89 07             	mov    %rax,(%r15)
  402d1c:	49 89 57 08          	mov    %rdx,0x8(%r15)
  402d20:	48 b8 61 62 6c 65 20 	movabs $0x206f7420656c6261,%rax
  402d27:	74 6f 20 
  402d2a:	48 ba 72 65 61 64 20 	movabs $0x6165682064616572,%rdx
  402d31:	68 65 61 
  402d34:	49 89 47 10          	mov    %rax,0x10(%r15)
  402d38:	49 89 57 18          	mov    %rdx,0x18(%r15)
  402d3c:	48 b8 64 65 72 73 20 	movabs $0x6f72662073726564,%rax
  402d43:	66 72 6f 
  402d46:	48 ba 6d 20 41 75 74 	movabs $0x616c6f747541206d,%rdx
  402d4d:	6f 6c 61 
  402d50:	49 89 47 20          	mov    %rax,0x20(%r15)
  402d54:	49 89 57 28          	mov    %rdx,0x28(%r15)
  402d58:	48 b8 20 41 75 74 6f 	movabs $0x62616c6f74754120,%rax
  402d5f:	6c 61 62 
  402d62:	48 ba 20 73 65 72 76 	movabs $0x72657672657320,%rdx
  402d69:	65 72 00 
  402d6c:	49 89 47 29          	mov    %rax,0x29(%r15)
  402d70:	49 89 57 31          	mov    %rdx,0x31(%r15)
  402d74:	89 df                	mov    %ebx,%edi
  402d76:	e8 55 e3 ff ff       	call   4010d0 <close@plt>
  402d7b:	b8 ff ff ff ff       	mov    $0xffffffff,%eax
  402d80:	48 8b 94 24 58 a0 00 	mov    0xa058(%rsp),%rdx
  402d87:	00 
  402d88:	64 48 2b 14 25 28 00 	sub    %fs:0x28,%rdx
  402d8f:	00 00 
  402d91:	0f 85 67 04 00 00    	jne    4031fe <submitr+0x749>
  402d97:	48 81 c4 68 a0 00 00 	add    $0xa068,%rsp
  402d9e:	5b                   	pop    %rbx
  402d9f:	5d                   	pop    %rbp
  402da0:	41 5c                	pop    %r12
  402da2:	41 5d                	pop    %r13
  402da4:	41 5e                	pop    %r14
  402da6:	41 5f                	pop    %r15
  402da8:	c3                   	ret
  402da9:	48 b8 45 72 72 6f 72 	movabs $0x43203a726f727245,%rax
  402db0:	3a 20 43 
  402db3:	48 ba 6c 69 65 6e 74 	movabs $0x6e7520746e65696c,%rdx
  402dba:	20 75 6e 
  402dbd:	49 89 07             	mov    %rax,(%r15)
  402dc0:	49 89 57 08          	mov    %rdx,0x8(%r15)
  402dc4:	48 b8 61 62 6c 65 20 	movabs $0x206f7420656c6261,%rax
  402dcb:	74 6f 20 
  402dce:	48 ba 63 72 65 61 74 	movabs $0x7320657461657263,%rdx
  402dd5:	65 20 73 
  402dd8:	49 89 47 10          	mov    %rax,0x10(%r15)
  402ddc:	49 89 57 18          	mov    %rdx,0x18(%r15)
  402de0:	48 b8 20 73 6f 63 6b 	movabs $0x74656b636f7320,%rax
  402de7:	65 74 00 
  402dea:	49 89 47 1e          	mov    %rax,0x1e(%r15)
  402dee:	b8 ff ff ff ff       	mov    $0xffffffff,%eax
  402df3:	eb 8b                	jmp    402d80 <submitr+0x2cb>
  402df5:	48 b8 45 72 72 6f 72 	movabs $0x44203a726f727245,%rax
  402dfc:	3a 20 44 
  402dff:	48 ba 4e 53 20 69 73 	movabs $0x6e7520736920534e,%rdx
  402e06:	20 75 6e 
  402e09:	49 89 07             	mov    %rax,(%r15)
  402e0c:	49 89 57 08          	mov    %rdx,0x8(%r15)
  402e10:	48 b8 61 62 6c 65 20 	movabs $0x206f7420656c6261,%rax
  402e17:	74 6f 20 
  402e1a:	48 ba 72 65 73 6f 6c 	movabs $0x2065766c6f736572,%rdx
  402e21:	76 65 20 
  402e24:	49 89 47 10          	mov    %rax,0x10(%r15)
  402e28:	49 89 57 18          	mov    %rdx,0x18(%r15)
  402e2c:	48 b8 41 75 74 6f 6c 	movabs $0x2062616c6f747541,%rax
  402e33:	61 62 20 
  402e36:	48 ba 73 65 72 76 65 	movabs $0x6120726576726573,%rdx
  402e3d:	72 20 61 
  402e40:	49 89 47 20          	mov    %rax,0x20(%r15)
  402e44:	49 89 57 28          	mov    %rdx,0x28(%r15)
  402e48:	48 b8 61 64 64 72 65 	movabs $0x73736572646461,%rax
  402e4f:	73 73 00 
  402e52:	49 89 47 2f          	mov    %rax,0x2f(%r15)
  402e56:	89 df                	mov    %ebx,%edi
  402e58:	e8 73 e2 ff ff       	call   4010d0 <close@plt>
  402e5d:	b8 ff ff ff ff       	mov    $0xffffffff,%eax
  402e62:	e9 19 ff ff ff       	jmp    402d80 <submitr+0x2cb>
  402e67:	48 b8 45 72 72 6f 72 	movabs $0x55203a726f727245,%rax
  402e6e:	3a 20 55 
  402e71:	48 ba 6e 61 62 6c 65 	movabs $0x6f7420656c62616e,%rdx
  402e78:	20 74 6f 
  402e7b:	49 89 07             	mov    %rax,(%r15)
  402e7e:	49 89 57 08          	mov    %rdx,0x8(%r15)
  402e82:	48 b8 20 63 6f 6e 6e 	movabs $0x7463656e6e6f6320,%rax
  402e89:	65 63 74 
  402e8c:	48 ba 20 74 6f 20 74 	movabs $0x20656874206f7420,%rdx
  402e93:	68 65 20 
  402e96:	49 89 47 10          	mov    %rax,0x10(%r15)
  402e9a:	49 89 57 18          	mov    %rdx,0x18(%r15)
  402e9e:	48 b8 20 41 75 74 6f 	movabs $0x62616c6f74754120,%rax
  402ea5:	6c 61 62 
  402ea8:	48 ba 20 73 65 72 76 	movabs $0x72657672657320,%rdx
  402eaf:	65 72 00 
  402eb2:	49 89 47 1f          	mov    %rax,0x1f(%r15)
  402eb6:	49 89 57 27          	mov    %rdx,0x27(%r15)
  402eba:	89 df                	mov    %ebx,%edi
  402ebc:	e8 0f e2 ff ff       	call   4010d0 <close@plt>
  402ec1:	b8 ff ff ff ff       	mov    $0xffffffff,%eax
  402ec6:	e9 b5 fe ff ff       	jmp    402d80 <submitr+0x2cb>
  402ecb:	48 b8 45 72 72 6f 72 	movabs $0x52203a726f727245,%rax
  402ed2:	3a 20 52 
  402ed5:	48 ba 65 73 75 6c 74 	movabs $0x747320746c757365,%rdx
  402edc:	20 73 74 
  402edf:	49 89 07             	mov    %rax,(%r15)
  402ee2:	49 89 57 08          	mov    %rdx,0x8(%r15)
  402ee6:	48 b8 72 69 6e 67 20 	movabs $0x6f6f7420676e6972,%rax
  402eed:	74 6f 6f 
  402ef0:	48 ba 20 6c 61 72 67 	movabs $0x202e656772616c20,%rdx
  402ef7:	65 2e 20 
  402efa:	49 89 47 10          	mov    %rax,0x10(%r15)
  402efe:	49 89 57 18          	mov    %rdx,0x18(%r15)
  402f02:	48 b8 49 6e 63 72 65 	movabs $0x6573616572636e49,%rax
  402f09:	61 73 65 
  402f0c:	48 ba 20 53 55 42 4d 	movabs $0x5254494d42555320,%rdx
  402f13:	49 54 52 
  402f16:	49 89 47 20          	mov    %rax,0x20(%r15)
  402f1a:	49 89 57 28          	mov    %rdx,0x28(%r15)
  402f1e:	48 b8 5f 4d 41 58 42 	movabs $0x46554258414d5f,%rax
  402f25:	55 46 00 
  402f28:	49 89 47 30          	mov    %rax,0x30(%r15)
  402f2c:	89 df                	mov    %ebx,%edi
  402f2e:	e8 9d e1 ff ff       	call   4010d0 <close@plt>
  402f33:	b8 ff ff ff ff       	mov    $0xffffffff,%eax
  402f38:	e9 43 fe ff ff       	jmp    402d80 <submitr+0x2cb>
  402f3d:	48 b8 45 72 72 6f 72 	movabs $0x55203a726f727245,%rax
  402f44:	3a 20 55 
  402f47:	48 ba 73 65 72 69 64 	movabs $0x7473206469726573,%rdx
  402f4e:	20 73 74 
  402f51:	49 89 07             	mov    %rax,(%r15)
  402f54:	49 89 57 08          	mov    %rdx,0x8(%r15)
  402f58:	48 b8 72 69 6e 67 20 	movabs $0x6e6f6320676e6972,%rax
  402f5f:	63 6f 6e 
  402f62:	48 ba 74 61 69 6e 73 	movabs $0x6e6120736e696174,%rdx
  402f69:	20 61 6e 
  402f6c:	49 89 47 10          	mov    %rax,0x10(%r15)
  402f70:	49 89 57 18          	mov    %rdx,0x18(%r15)
  402f74:	48 b8 20 69 6c 6c 65 	movabs $0x6c6167656c6c6920,%rax
  402f7b:	67 61 6c 
  402f7e:	48 ba 20 6f 72 20 75 	movabs $0x72706e7520726f20,%rdx
  402f85:	6e 70 72 
  402f88:	49 89 47 20          	mov    %rax,0x20(%r15)
  402f8c:	49 89 57 28          	mov    %rdx,0x28(%r15)
  402f90:	48 b8 69 6e 74 61 62 	movabs $0x20656c6261746e69,%rax
  402f97:	6c 65 20 
  402f9a:	48 ba 63 68 61 72 61 	movabs $0x6574636172616863,%rdx
  402fa1:	63 74 65 
  402fa4:	49 89 47 30          	mov    %rax,0x30(%r15)
  402fa8:	49 89 57 38          	mov    %rdx,0x38(%r15)
  402fac:	41 c7 47 3f 65 72 2e 	movl   $0x2e7265,0x3f(%r15)
  402fb3:	00 
  402fb4:	89 df                	mov    %ebx,%edi
  402fb6:	e8 15 e1 ff ff       	call   4010d0 <close@plt>
  402fbb:	b8 ff ff ff ff       	mov    $0xffffffff,%eax
  402fc0:	e9 bb fd ff ff       	jmp    402d80 <submitr+0x2cb>
  402fc5:	48 b8 45 72 72 6f 72 	movabs $0x43203a726f727245,%rax
  402fcc:	3a 20 43 
  402fcf:	48 ba 6c 69 65 6e 74 	movabs $0x6e7520746e65696c,%rdx
  402fd6:	20 75 6e 
  402fd9:	49 89 07             	mov    %rax,(%r15)
  402fdc:	49 89 57 08          	mov    %rdx,0x8(%r15)
  402fe0:	48 b8 61 62 6c 65 20 	movabs $0x206f7420656c6261,%rax
  402fe7:	74 6f 20 
  402fea:	48 ba 77 72 69 74 65 	movabs $0x6f74206574697277,%rdx
  402ff1:	20 74 6f 
  402ff4:	49 89 47 10          	mov    %rax,0x10(%r15)
  402ff8:	49 89 57 18          	mov    %rdx,0x18(%r15)
  402ffc:	48 b8 20 74 68 65 20 	movabs $0x7475412065687420,%rax
  403003:	41 75 74 
  403006:	48 ba 6f 6c 61 62 20 	movabs $0x7265732062616c6f,%rdx
  40300d:	73 65 72 
  403010:	49 89 47 20          	mov    %rax,0x20(%r15)
  403014:	49 89 57 28          	mov    %rdx,0x28(%r15)
  403018:	41 c7 47 30 76 65 72 	movl   $0x726576,0x30(%r15)
  40301f:	00 
  403020:	89 df                	mov    %ebx,%edi
  403022:	e8 a9 e0 ff ff       	call   4010d0 <close@plt>
  403027:	b8 ff ff ff ff       	mov    $0xffffffff,%eax
  40302c:	e9 4f fd ff ff       	jmp    402d80 <submitr+0x2cb>
  403031:	48 b8 45 72 72 6f 72 	movabs $0x43203a726f727245,%rax
  403038:	3a 20 43 
  40303b:	48 ba 6c 69 65 6e 74 	movabs $0x6e7520746e65696c,%rdx
  403042:	20 75 6e 
  403045:	49 89 07             	mov    %rax,(%r15)
  403048:	49 89 57 08          	mov    %rdx,0x8(%r15)
  40304c:	48 b8 61 62 6c 65 20 	movabs $0x206f7420656c6261,%rax
  403053:	74 6f 20 
  403056:	48 ba 72 65 61 64 20 	movabs $0x7269662064616572,%rdx
  40305d:	66 69 72 
  403060:	49 89 47 10          	mov    %rax,0x10(%r15)
  403064:	49 89 57 18          	mov    %rdx,0x18(%r15)
  403068:	48 b8 73 74 20 68 65 	movabs $0x6564616568207473,%rax
  40306f:	61 64 65 
  403072:	48 ba 72 20 66 72 6f 	movabs $0x41206d6f72662072,%rdx
  403079:	6d 20 41 
  40307c:	49 89 47 20          	mov    %rax,0x20(%r15)
  403080:	49 89 57 28          	mov    %rdx,0x28(%r15)
  403084:	48 b8 20 41 75 74 6f 	movabs $0x62616c6f74754120,%rax
  40308b:	6c 61 62 
  40308e:	48 ba 20 73 65 72 76 	movabs $0x72657672657320,%rdx
  403095:	65 72 00 
  403098:	49 89 47 2e          	mov    %rax,0x2e(%r15)
  40309c:	49 89 57 36          	mov    %rdx,0x36(%r15)
  4030a0:	89 df                	mov    %ebx,%edi
  4030a2:	e8 29 e0 ff ff       	call   4010d0 <close@plt>
  4030a7:	b8 ff ff ff ff       	mov    $0xffffffff,%eax
  4030ac:	e9 cf fc ff ff       	jmp    402d80 <submitr+0x2cb>
  4030b1:	48 8d b4 24 50 20 00 	lea    0x2050(%rsp),%rsi
  4030b8:	00 
  4030b9:	48 8d 7c 24 40       	lea    0x40(%rsp),%rdi
  4030be:	ba 00 20 00 00       	mov    $0x2000,%edx
  4030c3:	e8 46 f8 ff ff       	call   40290e <rio_readlineb>
  4030c8:	48 85 c0             	test   %rax,%rax
  4030cb:	7e 78                	jle    403145 <submitr+0x690>
  4030cd:	44 8b 44 24 2c       	mov    0x2c(%rsp),%r8d
  4030d2:	41 81 f8 c8 00 00 00 	cmp    $0xc8,%r8d
  4030d9:	0f 85 e6 00 00 00    	jne    4031c5 <submitr+0x710>
  4030df:	48 8d b4 24 50 20 00 	lea    0x2050(%rsp),%rsi
  4030e6:	00 
  4030e7:	4c 89 ff             	mov    %r15,%rdi
  4030ea:	e8 81 df ff ff       	call   401070 <strcpy@plt>
  4030ef:	89 df                	mov    %ebx,%edi
  4030f1:	e8 da df ff ff       	call   4010d0 <close@plt>
  4030f6:	48 8d 35 71 16 00 00 	lea    0x1671(%rip),%rsi        # 40476e <_IO_stdin_used+0x76e>
  4030fd:	4c 89 ff             	mov    %r15,%rdi
  403100:	e8 eb df ff ff       	call   4010f0 <strcmp@plt>
  403105:	85 c0                	test   %eax,%eax
  403107:	0f 84 73 fc ff ff    	je     402d80 <submitr+0x2cb>
  40310d:	48 8d 35 5e 16 00 00 	lea    0x165e(%rip),%rsi        # 404772 <_IO_stdin_used+0x772>
  403114:	4c 89 ff             	mov    %r15,%rdi
  403117:	e8 d4 df ff ff       	call   4010f0 <strcmp@plt>
  40311c:	85 c0                	test   %eax,%eax
  40311e:	0f 84 5c fc ff ff    	je     402d80 <submitr+0x2cb>
  403124:	48 8d 35 4c 16 00 00 	lea    0x164c(%rip),%rsi        # 404777 <_IO_stdin_used+0x777>
  40312b:	4c 89 ff             	mov    %r15,%rdi
  40312e:	e8 bd df ff ff       	call   4010f0 <strcmp@plt>
  403133:	85 c0                	test   %eax,%eax
  403135:	0f 84 45 fc ff ff    	je     402d80 <submitr+0x2cb>
  40313b:	b8 ff ff ff ff       	mov    $0xffffffff,%eax
  403140:	e9 3b fc ff ff       	jmp    402d80 <submitr+0x2cb>
  403145:	48 b8 45 72 72 6f 72 	movabs $0x43203a726f727245,%rax
  40314c:	3a 20 43 
  40314f:	48 ba 6c 69 65 6e 74 	movabs $0x6e7520746e65696c,%rdx
  403156:	20 75 6e 
  403159:	49 89 07             	mov    %rax,(%r15)
  40315c:	49 89 57 08          	mov    %rdx,0x8(%r15)
  403160:	48 b8 61 62 6c 65 20 	movabs $0x206f7420656c6261,%rax
  403167:	74 6f 20 
  40316a:	48 ba 72 65 61 64 20 	movabs $0x6174732064616572,%rdx
  403171:	73 74 61 
  403174:	49 89 47 10          	mov    %rax,0x10(%r15)
  403178:	49 89 57 18          	mov    %rdx,0x18(%r15)
  40317c:	48 b8 74 75 73 20 6d 	movabs $0x7373656d20737574,%rax
  403183:	65 73 73 
  403186:	48 ba 61 67 65 20 66 	movabs $0x6d6f726620656761,%rdx
  40318d:	72 6f 6d 
  403190:	49 89 47 20          	mov    %rax,0x20(%r15)
  403194:	49 89 57 28          	mov    %rdx,0x28(%r15)
  403198:	48 b8 20 41 75 74 6f 	movabs $0x62616c6f74754120,%rax
  40319f:	6c 61 62 
  4031a2:	48 ba 20 73 65 72 76 	movabs $0x72657672657320,%rdx
  4031a9:	65 72 00 
  4031ac:	49 89 47 30          	mov    %rax,0x30(%r15)
  4031b0:	49 89 57 38          	mov    %rdx,0x38(%r15)
  4031b4:	89 df                	mov    %ebx,%edi
  4031b6:	e8 15 df ff ff       	call   4010d0 <close@plt>
  4031bb:	b8 ff ff ff ff       	mov    $0xffffffff,%eax
  4031c0:	e9 bb fb ff ff       	jmp    402d80 <submitr+0x2cb>
  4031c5:	4c 8d 8c 24 50 80 00 	lea    0x8050(%rsp),%r9
  4031cc:	00 
  4031cd:	48 8d 0d 1c 13 00 00 	lea    0x131c(%rip),%rcx        # 4044f0 <_IO_stdin_used+0x4f0>
  4031d4:	48 c7 c2 ff ff ff ff 	mov    $0xffffffffffffffff,%rdx
  4031db:	be 02 00 00 00       	mov    $0x2,%esi
  4031e0:	4c 89 ff             	mov    %r15,%rdi
  4031e3:	b8 00 00 00 00       	mov    $0x0,%eax
  4031e8:	e8 33 e0 ff ff       	call   401220 <__sprintf_chk@plt>
  4031ed:	89 df                	mov    %ebx,%edi
  4031ef:	e8 dc de ff ff       	call   4010d0 <close@plt>
  4031f4:	b8 ff ff ff ff       	mov    $0xffffffff,%eax
  4031f9:	e9 82 fb ff ff       	jmp    402d80 <submitr+0x2cb>
  4031fe:	e8 ab f3 ff ff       	call   4025ae <__stack_chk_fail>

0000000000403203 <init_timeout>:
  403203:	f3 0f 1e fa          	endbr64
  403207:	85 ff                	test   %edi,%edi
  403209:	74 26                	je     403231 <init_timeout+0x2e>
  40320b:	53                   	push   %rbx
  40320c:	89 fb                	mov    %edi,%ebx
  40320e:	78 1a                	js     40322a <init_timeout+0x27>
  403210:	48 8d 35 d5 f5 ff ff 	lea    -0xa2b(%rip),%rsi        # 4027ec <sigalrm_handler>
  403217:	bf 0e 00 00 00       	mov    $0xe,%edi
  40321c:	e8 df de ff ff       	call   401100 <signal@plt>
  403221:	89 df                	mov    %ebx,%edi
  403223:	e8 98 de ff ff       	call   4010c0 <alarm@plt>
  403228:	5b                   	pop    %rbx
  403229:	c3                   	ret
  40322a:	bb 00 00 00 00       	mov    $0x0,%ebx
  40322f:	eb df                	jmp    403210 <init_timeout+0xd>
  403231:	c3                   	ret

0000000000403232 <init_driver>:
  403232:	f3 0f 1e fa          	endbr64
  403236:	41 54                	push   %r12
  403238:	55                   	push   %rbp
  403239:	53                   	push   %rbx
  40323a:	48 83 ec 20          	sub    $0x20,%rsp
  40323e:	48 89 fd             	mov    %rdi,%rbp
  403241:	64 48 8b 04 25 28 00 	mov    %fs:0x28,%rax
  403248:	00 00 
  40324a:	48 89 44 24 18       	mov    %rax,0x18(%rsp)
  40324f:	31 c0                	xor    %eax,%eax
  403251:	be 01 00 00 00       	mov    $0x1,%esi
  403256:	bf 0d 00 00 00       	mov    $0xd,%edi
  40325b:	e8 a0 de ff ff       	call   401100 <signal@plt>
  403260:	be 01 00 00 00       	mov    $0x1,%esi
  403265:	bf 1d 00 00 00       	mov    $0x1d,%edi
  40326a:	e8 91 de ff ff       	call   401100 <signal@plt>
  40326f:	be 01 00 00 00       	mov    $0x1,%esi
  403274:	bf 1d 00 00 00       	mov    $0x1d,%edi
  403279:	e8 82 de ff ff       	call   401100 <signal@plt>
  40327e:	ba 00 00 00 00       	mov    $0x0,%edx
  403283:	be 01 00 00 00       	mov    $0x1,%esi
  403288:	bf 02 00 00 00       	mov    $0x2,%edi
  40328d:	e8 9e df ff ff       	call   401230 <socket@plt>
  403292:	85 c0                	test   %eax,%eax
  403294:	0f 88 93 00 00 00    	js     40332d <init_driver+0xfb>
  40329a:	89 c3                	mov    %eax,%ebx
  40329c:	48 8d 3d d7 14 00 00 	lea    0x14d7(%rip),%rdi        # 40477a <_IO_stdin_used+0x77a>
  4032a3:	e8 68 de ff ff       	call   401110 <gethostbyname@plt>
  4032a8:	48 85 c0             	test   %rax,%rax
  4032ab:	0f 84 c9 00 00 00    	je     40337a <init_driver+0x148>
  4032b1:	49 89 e4             	mov    %rsp,%r12
  4032b4:	66 0f ef c0          	pxor   %xmm0,%xmm0
  4032b8:	0f 29 04 24          	movaps %xmm0,(%rsp)
  4032bc:	66 c7 04 24 02 00    	movw   $0x2,(%rsp)
  4032c2:	48 63 50 14          	movslq 0x14(%rax),%rdx
  4032c6:	48 8b 40 18          	mov    0x18(%rax),%rax
  4032ca:	48 8b 30             	mov    (%rax),%rsi
  4032cd:	48 8d 7c 24 04       	lea    0x4(%rsp),%rdi
  4032d2:	b9 0c 00 00 00       	mov    $0xc,%ecx
  4032d7:	e8 44 de ff ff       	call   401120 <__memmove_chk@plt>
  4032dc:	66 c7 44 24 02 0b b8 	movw   $0xb80b,0x2(%rsp)
  4032e3:	ba 10 00 00 00       	mov    $0x10,%edx
  4032e8:	4c 89 e6             	mov    %r12,%rsi
  4032eb:	89 df                	mov    %ebx,%edi
  4032ed:	e8 fe de ff ff       	call   4011f0 <connect@plt>
  4032f2:	85 c0                	test   %eax,%eax
  4032f4:	0f 88 e5 00 00 00    	js     4033df <init_driver+0x1ad>
  4032fa:	89 df                	mov    %ebx,%edi
  4032fc:	e8 cf dd ff ff       	call   4010d0 <close@plt>
  403301:	66 c7 45 00 4f 4b    	movw   $0x4b4f,0x0(%rbp)
  403307:	c6 45 02 00          	movb   $0x0,0x2(%rbp)
  40330b:	b8 00 00 00 00       	mov    $0x0,%eax
  403310:	48 8b 54 24 18       	mov    0x18(%rsp),%rdx
  403315:	64 48 2b 14 25 28 00 	sub    %fs:0x28,%rdx
  40331c:	00 00 
  40331e:	0f 85 27 01 00 00    	jne    40344b <init_driver+0x219>
  403324:	48 83 c4 20          	add    $0x20,%rsp
  403328:	5b                   	pop    %rbx
  403329:	5d                   	pop    %rbp
  40332a:	41 5c                	pop    %r12
  40332c:	c3                   	ret
  40332d:	48 b8 45 72 72 6f 72 	movabs $0x43203a726f727245,%rax
  403334:	3a 20 43 
  403337:	48 ba 6c 69 65 6e 74 	movabs $0x6e7520746e65696c,%rdx
  40333e:	20 75 6e 
  403341:	48 89 45 00          	mov    %rax,0x0(%rbp)
  403345:	48 89 55 08          	mov    %rdx,0x8(%rbp)
  403349:	48 b8 61 62 6c 65 20 	movabs $0x206f7420656c6261,%rax
  403350:	74 6f 20 
  403353:	48 ba 63 72 65 61 74 	movabs $0x7320657461657263,%rdx
  40335a:	65 20 73 
  40335d:	48 89 45 10          	mov    %rax,0x10(%rbp)
  403361:	48 89 55 18          	mov    %rdx,0x18(%rbp)
  403365:	48 b8 20 73 6f 63 6b 	movabs $0x74656b636f7320,%rax
  40336c:	65 74 00 
  40336f:	48 89 45 1e          	mov    %rax,0x1e(%rbp)
  403373:	b8 ff ff ff ff       	mov    $0xffffffff,%eax
  403378:	eb 96                	jmp    403310 <init_driver+0xde>
  40337a:	48 b8 45 72 72 6f 72 	movabs $0x44203a726f727245,%rax
  403381:	3a 20 44 
  403384:	48 ba 4e 53 20 69 73 	movabs $0x6e7520736920534e,%rdx
  40338b:	20 75 6e 
  40338e:	48 89 45 00          	mov    %rax,0x0(%rbp)
  403392:	48 89 55 08          	mov    %rdx,0x8(%rbp)
  403396:	48 b8 61 62 6c 65 20 	movabs $0x206f7420656c6261,%rax
  40339d:	74 6f 20 
  4033a0:	48 ba 72 65 73 6f 6c 	movabs $0x2065766c6f736572,%rdx
  4033a7:	76 65 20 
  4033aa:	48 89 45 10          	mov    %rax,0x10(%rbp)
  4033ae:	48 89 55 18          	mov    %rdx,0x18(%rbp)
  4033b2:	48 b8 20 73 65 72 76 	movabs $0x2072657672657320,%rax
  4033b9:	65 72 20 
  4033bc:	48 ba 61 64 64 72 65 	movabs $0x73736572646461,%rdx
  4033c3:	73 73 00 
  4033c6:	48 89 45 1f          	mov    %rax,0x1f(%rbp)
  4033ca:	48 89 55 27          	mov    %rdx,0x27(%rbp)
  4033ce:	89 df                	mov    %ebx,%edi
  4033d0:	e8 fb dc ff ff       	call   4010d0 <close@plt>
  4033d5:	b8 ff ff ff ff       	mov    $0xffffffff,%eax
  4033da:	e9 31 ff ff ff       	jmp    403310 <init_driver+0xde>
  4033df:	48 b8 31 39 32 2e 31 	movabs $0x2e3836312e323931,%rax
  4033e6:	36 38 2e 
  4033e9:	48 ba 31 33 32 2e 31 	movabs $0x3737312e323331,%rdx
  4033f0:	37 37 00 
  4033f3:	48 89 45 00          	mov    %rax,0x0(%rbp)
  4033f7:	48 89 55 08          	mov    %rdx,0x8(%rbp)
  4033fb:	48 b8 45 72 72 6f 72 	movabs $0x55203a726f727245,%rax
  403402:	3a 20 55 
  403405:	48 ba 6e 61 62 6c 65 	movabs $0x6f7420656c62616e,%rdx
  40340c:	20 74 6f 
  40340f:	48 89 45 00          	mov    %rax,0x0(%rbp)
  403413:	48 89 55 08          	mov    %rdx,0x8(%rbp)
  403417:	48 b8 20 63 6f 6e 6e 	movabs $0x7463656e6e6f6320,%rax
  40341e:	65 63 74 
  403421:	48 ba 20 74 6f 20 73 	movabs $0x76726573206f7420,%rdx
  403428:	65 72 76 
  40342b:	48 89 45 10          	mov    %rax,0x10(%rbp)
  40342f:	48 89 55 18          	mov    %rdx,0x18(%rbp)
  403433:	c7 45 1f 76 65 72 00 	movl   $0x726576,0x1f(%rbp)
  40343a:	89 df                	mov    %ebx,%edi
  40343c:	e8 8f dc ff ff       	call   4010d0 <close@plt>
  403441:	b8 ff ff ff ff       	mov    $0xffffffff,%eax
  403446:	e9 c5 fe ff ff       	jmp    403310 <init_driver+0xde>
  40344b:	e8 5e f1 ff ff       	call   4025ae <__stack_chk_fail>

0000000000403450 <driver_post>:
  403450:	f3 0f 1e fa          	endbr64
  403454:	53                   	push   %rbx
  403455:	4c 89 cb             	mov    %r9,%rbx
  403458:	45 85 c0             	test   %r8d,%r8d
  40345b:	75 18                	jne    403475 <driver_post+0x25>
  40345d:	48 85 ff             	test   %rdi,%rdi
  403460:	74 05                	je     403467 <driver_post+0x17>
  403462:	80 3f 00             	cmpb   $0x0,(%rdi)
  403465:	75 37                	jne    40349e <driver_post+0x4e>
  403467:	66 c7 03 4f 4b       	movw   $0x4b4f,(%rbx)
  40346c:	c6 43 02 00          	movb   $0x0,0x2(%rbx)
  403470:	44 89 c0             	mov    %r8d,%eax
  403473:	5b                   	pop    %rbx
  403474:	c3                   	ret
  403475:	48 89 ca             	mov    %rcx,%rdx
  403478:	48 8d 35 0b 13 00 00 	lea    0x130b(%rip),%rsi        # 40478a <_IO_stdin_used+0x78a>
  40347f:	bf 02 00 00 00       	mov    $0x2,%edi
  403484:	b8 00 00 00 00       	mov    $0x0,%eax
  403489:	e8 02 dd ff ff       	call   401190 <__printf_chk@plt>
  40348e:	66 c7 03 4f 4b       	movw   $0x4b4f,(%rbx)
  403493:	c6 43 02 00          	movb   $0x0,0x2(%rbx)
  403497:	b8 00 00 00 00       	mov    $0x0,%eax
  40349c:	eb d5                	jmp    403473 <driver_post+0x23>
  40349e:	48 83 ec 08          	sub    $0x8,%rsp
  4034a2:	41 51                	push   %r9
  4034a4:	49 89 c9             	mov    %rcx,%r9
  4034a7:	49 89 d0             	mov    %rdx,%r8
  4034aa:	48 89 f9             	mov    %rdi,%rcx
  4034ad:	48 89 f2             	mov    %rsi,%rdx
  4034b0:	be b8 0b 00 00       	mov    $0xbb8,%esi
  4034b5:	48 8d 3d be 12 00 00 	lea    0x12be(%rip),%rdi        # 40477a <_IO_stdin_used+0x77a>
  4034bc:	e8 f4 f5 ff ff       	call   402ab5 <submitr>
  4034c1:	48 83 c4 10          	add    $0x10,%rsp
  4034c5:	eb ac                	jmp    403473 <driver_post+0x23>

00000000004034c7 <check>:
  4034c7:	f3 0f 1e fa          	endbr64
  4034cb:	89 f8                	mov    %edi,%eax
  4034cd:	c1 e8 1c             	shr    $0x1c,%eax
  4034d0:	74 1d                	je     4034ef <check+0x28>
  4034d2:	b9 00 00 00 00       	mov    $0x0,%ecx
  4034d7:	83 f9 1f             	cmp    $0x1f,%ecx
  4034da:	7f 0d                	jg     4034e9 <check+0x22>
  4034dc:	89 f8                	mov    %edi,%eax
  4034de:	d3 e8                	shr    %cl,%eax
  4034e0:	3c 0a                	cmp    $0xa,%al
  4034e2:	74 11                	je     4034f5 <check+0x2e>
  4034e4:	83 c1 08             	add    $0x8,%ecx
  4034e7:	eb ee                	jmp    4034d7 <check+0x10>
  4034e9:	b8 01 00 00 00       	mov    $0x1,%eax
  4034ee:	c3                   	ret
  4034ef:	b8 00 00 00 00       	mov    $0x0,%eax
  4034f4:	c3                   	ret
  4034f5:	b8 00 00 00 00       	mov    $0x0,%eax
  4034fa:	c3                   	ret

00000000004034fb <gencookie>:
  4034fb:	f3 0f 1e fa          	endbr64
  4034ff:	53                   	push   %rbx
  403500:	83 c7 01             	add    $0x1,%edi
  403503:	e8 38 db ff ff       	call   401040 <srandom@plt>
  403508:	e8 53 dc ff ff       	call   401160 <random@plt>
  40350d:	89 c3                	mov    %eax,%ebx
  40350f:	89 c7                	mov    %eax,%edi
  403511:	e8 b1 ff ff ff       	call   4034c7 <check>
  403516:	85 c0                	test   %eax,%eax
  403518:	74 ee                	je     403508 <gencookie+0xd>
  40351a:	89 d8                	mov    %ebx,%eax
  40351c:	5b                   	pop    %rbx
  40351d:	c3                   	ret

Disassembly of section .fini:

0000000000403520 <_fini>:
  403520:	f3 0f 1e fa          	endbr64
  403524:	48 83 ec 08          	sub    $0x8,%rsp
  403528:	48 83 c4 08          	add    $0x8,%rsp
  40352c:	c3                   	ret
